(lp0
(lp1
I3000
aI5000
aI7000
aI9000
aI11000
aI13000
aI15000
aI17000
aI19000
aI21000
aI23000
aI25000
aI27000
aI29000
aa(lp2
F5.08876781463623
aF8.24735722541809
aF11.453442001342774
aF14.28724422454834
aF17.16526041030884
aF21.457854986190796
aF25.050503396987914
aF27.256478786468506
aF29.328421211242677
aF34.25371103286743
aF36.84223780632019
aF39.48552017211914
aF44.83892221450806
aF46.03174619674682
aa.