(lp0
((lp1
Vthem
p2
aVthanks
p3
aVmake
p4
aVhappy
p5
aVfollow
p6
aVhope
p7
aVplease
p8
aVbirthday
p9
aVyou're
p10
aVeveryone
p11
acnumpy.core.multiarray
scalar
p12
(cnumpy
dtype
p13
(S'f8'
p14
I0
I1
tp15
Rp16
(I3
S'<'
p17
NNNI-1
I-1
I0
tp18
bS'\xa1\xe6\xa8\x87=iU@'
p19
tp20
Rp21
tp22
a((lp23
Vwant
p24
aVthem
p25
aVthanks
p26
aVmake
p27
aVhappy
p28
aVhope
p29
aVplease
p30
aVfollow
p31
aVbirthday
p32
aVeveryone
p33
ag12
(g16
S'\xfe\xd9\xca\xc5\n\xeaT@'
p34
tp35
Rp36
tp37
a((lp38
Vwant
p39
aVthanks
p40
aVthem
p41
aVmake
p42
aVhappy
p43
aVplease
p44
aVhope
p45
aVfollow
p46
aVbirthday
p47
aVyou're
p48
ag12
(g16
S'e\x8dp%\xc9\xf4R@'
p49
tp50
Rp51
tp52
a((lp53
Vwant
p54
aVwork
p55
aVthanks
p56
aVmake
p57
aVnice
p58
aVplease
p59
aVvery
p60
aVhappy
p61
aVfollow
p62
aVbirthday
p63
ag12
(g16
S'\x06)LZ{QK@'
p64
tp65
Rp66
tp67
a((lp68
Vwant
p69
aVwork
p70
aVstill
p71
aVyeah
p72
aVi've
p73
aVhere
p74
aVafter
p75
aVagain
p76
aVdays
p77
aVseen
p78
ag12
(g16
S'\xd3\xc1\x8d6\xbc\xef@@'
p79
tp80
Rp81
tp82
a((lp83
Vwork
p84
aVyeah
p85
aVstill
p86
aVthem
p87
aVhere
p88
aVnever
p89
aVi've
p90
aVafter
p91
aVdays
p92
aVseen
p93
ag12
(g16
S'\xc0\x7f\xa6\xaa\xec0B@'
p94
tp95
Rp96
tp97
a((lp98
Vwant
p99
aVthem
p100
aVstill
p101
aVwork
p102
aVi've
p103
aVhere
p104
aVnever
p105
aVafter
p106
aVever
p107
aVseen
p108
ag12
(g16
S'2\x92\x92\xc7\x07\x07B@'
p109
tp110
Rp111
tp112
a((lp113
Vhaha
p114
aVwant
p115
aVneed
p116
aVthem
p117
aVstill
p118
aVwork
p119
aVi've
p120
aVhere
p121
aVeven
p122
aVthough
p123
ag12
(g16
S'd\x9d#\xc3\xb0\x13A@'
p124
tp125
Rp126
tp127
a((lp128
Vhaha
p129
aVthem
p130
aVstill
p131
aVnever
p132
aVi've
p133
aVlife
p134
aVbest
p135
aVever
p136
aVthing
p137
aVseen
p138
ag12
(g16
S'\x12\x1f\xd0\x8c\xa2@D@'
p139
tp140
Rp141
tp142
a((lp143
Vhaha
p144
aVwant
p145
aVthem
p146
aVonly
p147
aVyeah
p148
aVwork
p149
aVstill
p150
aVi've
p151
aVafter
p152
aVthough
p153
ag12
(g16
S'\xce\xeb\x12lI\x87B@'
p154
tp155
Rp156
tp157
a((lp158
Vhaha
p159
aVwant
p160
aVthem
p161
aVyeah
p162
aVstill
p163
aVhere
p164
aVright
p165
aVi've
p166
aVthough
p167
aVafter
p168
ag12
(g16
S'\x1d\xf5\x8a\xb5\x17\xdfB@'
p169
tp170
Rp171
tp172
a((lp173
Vhaha
p174
aVwant
p175
aVthem
p176
aVneed
p177
aVonly
p178
aVyeah
p179
aVstill
p180
aVtomorrow
p181
aVi've
p182
aVthough
p183
ag12
(g16
S'?\x0fpc\xf6DC@'
p184
tp185
Rp186
tp187
a((lp188
Vhaha
p189
aVwant
p190
aVthem
p191
aVonly
p192
aVyeah
p193
aVstill
p194
aVright
p195
aVhere
p196
aVi've
p197
aVthough
p198
ag12
(g16
S'\xb2SO\xbb/\xc2C@'
p199
tp200
Rp201
tp202
a((lp203
Vhaha
p204
aVwant
p205
aVonly
p206
aVthem
p207
aVyeah
p208
aVstill
p209
aVeven
p210
aVthough
p211
aVi've
p212
aVsomeone
p213
ag12
(g16
S'c\x96b]()D@'
p214
tp215
Rp216
tp217
a((lp218
Vhaha
p219
aVwant
p220
aVthem
p221
aVonly
p222
aVyeah
p223
aVthough
p224
aVstill
p225
aVnever
p226
aVi've
p227
aVsomeone
p228
ag12
(g16
S'\xcf\xea_f\xd1yC@'
p229
tp230
Rp231
tp232
a((lp233
Vhaha
p234
aVneed
p235
aVwant
p236
aVonly
p237
aVthem
p238
aVyeah
p239
aVstill
p240
aVnever
p241
aVi've
p242
aVcould
p243
ag12
(g16
S'\x16}\x93\xd0\xe6EC@'
p244
tp245
Rp246
tp247
a((lp248
Vhaha
p249
aVonly
p250
aVyeah
p251
aVthem
p252
aVnever
p253
aVthough
p254
aVi've
p255
aVcould
p256
aVwere
p257
aVsomeone
p258
ag12
(g16
S'\x0f\xcc\\\xc5\xb5>D@'
p259
tp260
Rp261
tp262
a((lp263
Vhaha
p264
aVonly
p265
aVyeah
p266
aVthem
p267
aVnever
p268
aVthough
p269
aVstill
p270
aVi've
p271
aVwere
p272
aVsomeone
p273
ag12
(g16
S'\xe48#\xdbI\xafD@'
p274
tp275
Rp276
tp277
a((lp278
Vhaha
p279
aVneed
p280
aVwant
p281
aVonly
p282
aVyeah
p283
aVthem
p284
aVthough
p285
aVnever
p286
aVwere
p287
aVcould
p288
ag12
(g16
S'\xe2\x90\xefP\xe2\xbbB@'
p289
tp290
Rp291
tp292
a((lp293
Vhaha
p294
aVwant
p295
aVyeah
p296
aVthem
p297
aVthough
p298
aVstill
p299
aVi've
p300
aVmake
p301
aVcould
p302
aVwere
p303
ag12
(g16
S'v\x93h\xac`\x15C@'
p304
tp305
Rp306
tp307
a((lp308
Vhaha
p309
aVonly
p310
aVthem
p311
aVnever
p312
aVthough
p313
aVi've
p314
aVbest
p315
aVever
p316
aVthing
p317
aVseen
p318
ag12
(g16
S'\xdc\x88e\x1b\x8a\x1dG@'
p319
tp320
Rp321
tp322
a((lp323
Vhaha
p324
aVwant
p325
aVthem
p326
aVnever
p327
aVi've
p328
aVbest
p329
aVever
p330
aVthing
p331
aVbefore
p332
aVseen
p333
ag12
(g16
S'\x98\xd7\xcb\xff\x94\x1eG@'
p334
tp335
Rp336
tp337
a((lp338
Vhaha
p339
aVwant
p340
aVyeah
p341
aVthem
p342
aVnever
p343
aVbest
p344
aVi've
p345
aVever
p346
aVthing
p347
aVseen
p348
ag12
(g16
S'\x86m\x87]\xb9\xd1D@'
p349
tp350
Rp351
tp352
a((lp353
Vnever
p354
aVthem
p355
aVbest
p356
aVonly
p357
aVlife
p358
aVi've
p359
aVever
p360
aVthing
p361
aVbefore
p362
aVseen
p363
ag12
(g16
S')FuG\xb3\x9aF@'
p364
tp365
Rp366
tp367
a((lp368
Vwant
p369
aVnever
p370
aVonly
p371
aVbest
p372
aVlife
p373
aVi've
p374
aVever
p375
aVevery
p376
aVbefore
p377
aVseen
p378
ag12
(g16
S'\xb8\xa9G\xe3&\xacD@'
p379
tp380
Rp381
tp382
a((lp383
Vonly
p384
aVnever
p385
aVthem
p386
aVbest
p387
aVlife
p388
aVi've
p389
aVever
p390
aVthing
p391
aVbefore
p392
aVseen
p393
ag12
(g16
S'\xc4KZ\x89\x1a\x81D@'
p394
tp395
Rp396
tp397
a((lp398
Vhaha
p399
aVwant
p400
aVstill
p401
aVyeah
p402
aVtomorrow
p403
aVthem
p404
aVright
p405
aVeven
p406
aVthough
p407
aVbefore
p408
ag12
(g16
S'\xa6\x0c\x868\xd7nA@'
p409
tp410
Rp411
tp412
a((lp413
Vneed
p414
aVhaha
p415
aVstill
p416
aVonly
p417
aVthem
p418
aVlife
p419
aVmake
p420
aVi've
p421
aVnever
p422
aVever
p423
ag12
(g16
S'\xa3hH6\x000A@'
p424
tp425
Rp426
tp427
a((lp428
Vfollow
p429
aVplease
p430
aVpolice
p431
aVfollowing
p432
aVrecent
p433
aVfallen
p434
aVofficers
p435
aVmurders
p436
aVcolleagues
p437
aVtell
p438
ag12
(g16
S'\x12\xc3\xd0\xdb\x90\x00r@'
p439
tp440
Rp441
tp442
a((lp443
Vplease
p444
aVfollow
p445
aVpolice
p446
aVfollowing
p447
aVrecent
p448
aVofficers
p449
aVfallen
p450
aVcolleagues
p451
aVmurders
p452
aVtell
p453
ag12
(g16
S'\xf4\n*\x12|vu@'
p454
tp455
Rp456
tp457
a((lp458
Vplease
p459
aVthanks
p460
aVpolice
p461
aVfollow
p462
aVfollowing
p463
aVrecent
p464
aVofficers
p465
aVfallen
p466
aVcolleagues
p467
aVmurders
p468
ag12
(g16
S'\x82|%\xdaRzu@'
p469
tp470
Rp471
tp472
a((lp473
Vplease
p474
aVfollow
p475
aVpolice
p476
aVagain
p477
aVfollowing
p478
aVfallen
p479
aVcolleagues
p480
aVrecent
p481
aVofficers
p482
aVmurders
p483
ag12
(g16
S'\x84{\x93\xcb\xcczu@'
p484
tp485
Rp486
tp487
a((lp488
Vplease
p489
aVthanks
p490
aVpolice
p491
aVfollow
p492
aVfollowing
p493
aVofficers
p494
aVfallen
p495
aVcolleagues
p496
aVrecent
p497
aVmurders
p498
ag12
(g16
S'\x10\x9d\xa3\x021~u@'
p499
tp500
Rp501
tp502
a((lp503
Vthanks
p504
aVplease
p505
aVpolice
p506
aVfollow
p507
aVfollowing
p508
aVofficers
p509
aVfallen
p510
aVcolleagues
p511
aVrecent
p512
aVmurders
p513
ag12
(g16
S'\xeb\xc1\xee\xd7\x9d}u@'
p514
tp515
Rp516
tp517
a((lp518
Vthanks
p519
aVplease
p520
aVpolice
p521
aVfollow
p522
aVfollowing
p523
aVcolleagues
p524
aVofficers
p525
aVfallen
p526
aVrecent
p527
aVmurders
p528
ag12
(g16
S'd8\xe8\x9c\x8f}u@'
p529
tp530
Rp531
tp532
a((lp533
Vthanks
p534
aVplease
p535
aVpolice
p536
aVfollow
p537
aVfollowing
p538
aVfallen
p539
aVcolleagues
p540
aVofficers
p541
aVrecent
p542
aVmurders
p543
ag12
(g16
S'\xd8\x12\xb6\xfa\xde}u@'
p544
tp545
Rp546
tp547
a((lp548
Vthanks
p549
aVplease
p550
aVpolice
p551
aVfollow
p552
aVfollowing
p553
aVcolleagues
p554
aVofficers
p555
aVfallen
p556
aVrecent
p557
aVmurders
p558
ag12
(g16
S'z-\x8b\x04\xdf}u@'
p559
tp560
Rp561
tp562
a((lp563
Vthanks
p564
aVplease
p565
aVpolice
p566
aVfollow
p567
aVfollowing
p568
aVcolleagues
p569
aVfallen
p570
aVrecent
p571
aVofficers
p572
aVmurders
p573
ag12
(g16
S'\xc8\xd0\x8b\xdb\x03~u@'
p574
tp575
Rp576
tp577
a((lp578
Vhaha
p579
aVwork
p580
aVneed
p581
aVstill
p582
aVyeah
p583
aVwant
p584
aVthem
p585
aVafter
p586
aVweek
p587
aVthough
p588
ag12
(g16
S'\xd2\xcf\xf7c\x16\xd2C@'
p589
tp590
Rp591
tp592
a((lp593
Vhaha
p594
aVwork
p595
aVneed
p596
aVyeah
p597
aVstill
p598
aVwant
p599
aVi've
p600
aVnext
p601
aVthem
p602
aVthough
p603
ag12
(g16
S'\xa8\xac\xc6\x8e\xb3FD@'
p604
tp605
Rp606
tp607
a((lp608
Vhaha
p609
aVwork
p610
aVneed
p611
aVyeah
p612
aVstill
p613
aVnext
p614
aVthat's
p615
aVweek
p616
aVafter
p617
aVthough
p618
ag12
(g16
S'\xc9.\x98\xd3(\xc4E@'
p619
tp620
Rp621
tp622
a((lp623
Vhaha
p624
aVneed
p625
aVwork
p626
aVyeah
p627
aVnight
p628
aVnext
p629
aVthat's
p630
aVi've
p631
aVweek
p632
aVthough
p633
ag12
(g16
S'\xe2\xe4\xcagC\x9cE@'
p634
tp635
Rp636
tp637
a((lp638
Vhaha
p639
aVneed
p640
aVwork
p641
aVwant
p642
aVstill
p643
aVyeah
p644
aVweek
p645
aVeven
p646
aVthough
p647
aVgonna
p648
ag12
(g16
S',W\xe7?%\xdcB@'
p649
tp650
Rp651
tp652
a((lp653
Vhaha
p654
aVneed
p655
aVnight
p656
aVstill
p657
aVhere
p658
aVgreat
p659
aVthem
p660
aVnext
p661
aVright
p662
aVdidn't
p663
ag12
(g16
S'\xda\xb5\x98o\x96>B@'
p664
tp665
Rp666
tp667
a((lp668
Vhaha
p669
aVneed
p670
aVwork
p671
aVwant
p672
aVstill
p673
aVyeah
p674
aVthem
p675
aVi've
p676
aVweek
p677
aVthough
p678
ag12
(g16
S'Tp$\x98\xaa B@'
p679
tp680
Rp681
tp682
a((lp683
Vhaha
p684
aVneed
p685
aVwork
p686
aVthanks
p687
aVgreat
p688
aVyeah
p689
aVi've
p690
aVstill
p691
aVnext
p692
aVweek
p693
ag12
(g16
S'P\xb7\xbe\xeb;\x80B@'
p694
tp695
Rp696
tp697
a((lp698
Vhaha
p699
aVneed
p700
aVwork
p701
aVwant
p702
aVyeah
p703
aVstill
p704
aVgreat
p705
aVi've
p706
aVnext
p707
aVweek
p708
ag12
(g16
S'\xf6.7\xc9C>B@'
p709
tp710
Rp711
tp712
a((lp713
Vhaha
p714
aVneed
p715
aVwork
p716
aVgreat
p717
aVonly
p718
aVstill
p719
aVi've
p720
aVnext
p721
aVhope
p722
aVweek
p723
ag12
(g16
S'j\x84\xce*\x92\xa7A@'
p724
tp725
Rp726
tp727
a((lp728
Vwant
p729
aVwork
p730
aVthanks
p731
aVgreat
p732
aVyeah
p733
aVnext
p734
aVyou're
p735
aVwait
p736
aVweek
p737
aVyear
p738
ag12
(g16
S'\xac\xd4\x95\xdaZ\xe7@@'
p739
tp740
Rp741
tp742
a((lp743
Vneed
p744
aVhaha
p745
aVthanks
p746
aVwork
p747
aVyeah
p748
aVmake
p749
aVnext
p750
aVthough
p751
aVweek
p752
aVyear
p753
ag12
(g16
S' \xd2\x838_\xbc@@'
p754
tp755
Rp756
tp757
a((lp758
Vneed
p759
aVwant
p760
aVyeah
p761
aVstill
p762
aVonly
p763
aVnext
p764
aVeven
p765
aVbetter
p766
aVthough
p767
aVother
p768
ag12
(g16
S'\xd33\xfa\xcc\xf0\\B@'
p769
tp770
Rp771
tp772
a((lp773
Vneed
p774
aVhaha
p775
aVyeah
p776
aVmake
p777
aVthem
p778
aVstill
p779
aVthan
p780
aVthough
p781
aVfeel
p782
aVweek
p783
ag12
(g16
S'V\xb5\\\xe4\xc4SC@'
p784
tp785
Rp786
tp787
a((lp788
Vneed
p789
aVhaha
p790
aVyeah
p791
aVmake
p792
aVonly
p793
aVthem
p794
aVstill
p795
aVnext
p796
aVeven
p797
aVthough
p798
ag12
(g16
S'l\x05\xcf\xa2\x95\x8bB@'
p799
tp800
Rp801
tp802
a((lp803
Vhaha
p804
aVneed
p805
aVyeah
p806
aVonly
p807
aVthat's
p808
aVstill
p809
aVnext
p810
aVeven
p811
aVthough
p812
aVmate
p813
ag12
(g16
S'\xf7\xe2\x92\xce\xa1\nC@'
p814
tp815
Rp816
tp817
a((lp818
Vhaha
p819
aVneed
p820
aVyeah
p821
aVthem
p822
aVstill
p823
aVthat's
p824
aVthough
p825
aVweek
p826
aVmate
p827
aVweekend
p828
ag12
(g16
S'\x8e\xb5ZHD\xb4C@'
p829
tp830
Rp831
tp832
a((lp833
Vhaha
p834
aVneed
p835
aVwork
p836
aVstill
p837
aVyeah
p838
aVonly
p839
aVmake
p840
aVnext
p841
aVthough
p842
aVeven
p843
ag12
(g16
S'\xd8\x1a\x1b`}\x7fC@'
p844
tp845
Rp846
tp847
a((lp848
Vplease
p849
aVfollow
p850
aVthanks
p851
aVnice
p852
aVsomeone
p853
aVtwitter
p854
aVmaybe
p855
aVcheryl
p856
aVlouis
p857
aVpleasee
p858
ag12
(g16
S'\xafd\xd5I\x01bL@'
p859
tp860
Rp861
tp862
a((lp863
Vplease
p864
aVfollow
p865
aVthanks
p866
aVsomeone
p867
aVtwitter
p868
aVeveryone
p869
aVmaybe
p870
aVcheryl
p871
aVlouis
p872
aVpleasee
p873
ag12
(g16
S'\xa0\x84\x86FnjL@'
p874
tp875
Rp876
tp877
a((lp878
Vhaha
p879
aVneed
p880
aVwork
p881
aVwant
p882
aVthem
p883
aVstill
p884
aVyeah
p885
aVthat's
p886
aVweek
p887
aVeven
p888
ag12
(g16
S'\x80\x98&\xf7[\xfdB@'
p889
tp890
Rp891
tp892
a((lp893
Vhaha
p894
aVneed
p895
aVwant
p896
aVwork
p897
aVstill
p898
aVthem
p899
aVyeah
p900
aVi've
p901
aVnext
p902
aVmate
p903
ag12
(g16
S'a3\x9c\x0b2HB@'
p904
tp905
Rp906
tp907
a((lp908
Vhaha
p909
aVneed
p910
aVwork
p911
aVwant
p912
aVthem
p913
aVyeah
p914
aVonly
p915
aVstill
p916
aVshould
p917
aVafter
p918
ag12
(g16
S'Z\x9b\xd8\xd1\xe0\xf4@@'
p919
tp920
Rp921
tp922
a((lp923
Vhaha
p924
aVneed
p925
aVwant
p926
aVwork
p927
aVthem
p928
aVstill
p929
aVshould
p930
aVnext
p931
aVgreat
p932
aVafter
p933
ag12
(g16
S'\x9f \x87V\x9b+A@'
p934
tp935
Rp936
tp937
a.