(lp0
((lp1
Vthem
p2
aVthanks
p3
aVmake
p4
aVfollow
p5
aVhappy
p6
aVhope
p7
aVplease
p8
aVyou're
p9
aVbirthday
p10
aVeveryone
p11
acnumpy.core.multiarray
scalar
p12
(cnumpy
dtype
p13
(S'f8'
p14
I0
I1
tp15
Rp16
(I3
S'<'
p17
NNNI-1
I-1
I0
tp18
bS'\xcc\x1fQt\x08"E@'
p19
tp20
Rp21
VTue Sep 25 15:49:40 +0000 2012
p22
VTue Sep 25 17:13:49 +0000 2012
p23
tp24
a((lp25
Vthem
p26
aVwant
p27
aVmake
p28
aVhappy
p29
aVfollow
p30
aVhope
p31
aVbirthday
p32
aVyou're
p33
aVplease
p34
aVeveryone
p35
ag12
(g16
S'\xdf\x9a\xcd\x83\x81\xd6M@'
p36
tp37
Rp38
VTue Sep 25 16:07:06 +0000 2012
p39
VTue Sep 25 17:29:38 +0000 2012
p40
tp41
a((lp42
Vthanks
p43
aVthem
p44
aVmake
p45
aVhappy
p46
aVfollow
p47
aVbirthday
p48
aVhope
p49
aVplease
p50
aVyou're
p51
aVsense
p52
ag12
(g16
S')l\x156\x9a\x01N@'
p53
tp54
Rp55
VTue Sep 25 16:24:36 +0000 2012
p56
VTue Sep 25 17:45:44 +0000 2012
p57
tp58
a((lp59
Vwant
p60
aVthem
p61
aVplease
p62
aVmake
p63
aVhappy
p64
aVfollow
p65
aVbirthday
p66
aVyou're
p67
aVmakes
p68
aVsense
p69
ag12
(g16
S'Qa\x02\x05\x93lC@'
p70
tp71
Rp72
VTue Sep 25 16:41:30 +0000 2012
p73
VTue Sep 25 18:00:01 +0000 2012
p74
tp75
a((lp76
Vwant
p77
aVmake
p78
aVplease
p79
aVhappy
p80
aVvery
p81
aVfollow
p82
aVbirthday
p83
aVgonna
p84
aVsure
p85
aVsense
p86
ag12
(g16
S'\x80\xfa\xba\xe2\xd0\xaaG@'
p87
tp88
Rp89
VTue Sep 25 16:56:47 +0000 2012
p90
VTue Sep 25 18:14:36 +0000 2012
p91
tp92
a((lp93
Vwant
p94
aVthanks
p95
aVmake
p96
aVhappy
p97
aVvery
p98
aVplease
p99
aVgonna
p100
aVfollow
p101
aVbirthday
p102
aVsure
p103
ag12
(g16
S'\xf3,\x16\x1c\x85OF@'
p104
tp105
Rp106
VTue Sep 25 17:13:49 +0000 2012
p107
VTue Sep 25 18:27:56 +0000 2012
p108
tp109
a((lp110
Vwork
p111
aVyeah
p112
aVi've
p113
aVnever
p114
aVagain
p115
aVafter
p116
aVweek
p117
aVever
p118
aVseen
p119
aVthese
p120
ag12
(g16
S'2>\xa1\x80\x16\x054@'
p121
tp122
Rp123
VTue Sep 25 17:29:40 +0000 2012
p124
VTue Sep 25 18:41:25 +0000 2012
p125
tp126
a((lp127
Vhaha
p128
aVwant
p129
aVyeah
p130
aVnever
p131
aVhere
p132
aVlife
p133
aVagain
p134
aVafter
p135
aVdays
p136
aVseen
p137
ag12
(g16
S'\xa8\x97\x11\x02\xca\xa53@'
p138
tp139
Rp140
VTue Sep 25 17:45:45 +0000 2012
p141
VTue Sep 25 18:55:42 +0000 2012
p142
tp143
a((lp144
Vstill
p145
aVwant
p146
aVthem
p147
aVright
p148
aVmake
p149
aVafter
p150
aVthough
p151
aVbetter
p152
aVseen
p153
aVhard
p154
ag12
(g16
S'\xfa\xcd\xa3\x92\xef\xb31@'
p155
tp156
Rp157
VTue Sep 25 18:00:01 +0000 2012
p158
VTue Sep 25 19:09:08 +0000 2012
p159
tp160
a((lp161
Vwork
p162
aVyeah
p163
aVstill
p164
aVthem
p165
aVi've
p166
aVhere
p167
aVafter
p168
aVseen
p169
aVwithout
p170
aVgone
p171
ag12
(g16
S'C\x11\xf9_1\xce6@'
p172
tp173
Rp174
VTue Sep 25 18:14:36 +0000 2012
p175
VTue Sep 25 19:22:50 +0000 2012
p176
tp177
a((lp178
Vthem
p179
aVwork
p180
aVstill
p181
aVnever
p182
aVhere
p183
aVi've
p184
aVafter
p185
aVseen
p186
aVseeing
p187
aVhaven't
p188
ag12
(g16
S'!W\xf7(%\\6@'
p189
tp190
Rp191
VTue Sep 25 18:27:56 +0000 2012
p192
VTue Sep 25 19:36:08 +0000 2012
p193
tp194
a((lp195
Vgreat
p196
aVgbbo
p197
aVnight
p198
aVtomorrow
p199
aVnice
p200
aVwatching
p201
aVshow
p202
aVbake
p203
aVfree
p204
aVbritish
p205
ag12
(g16
S'f\xc1\xdf\x8c\x82_B@'
p206
tp207
Rp208
VTue Sep 25 18:41:25 +0000 2012
p209
VTue Sep 25 19:49:25 +0000 2012
p210
tp211
a((lp212
Vgbbo
p213
aVgreat
p214
aVnight
p215
aVnice
p216
aVgonna
p217
aVweek
p218
aVshow
p219
aVwatching
p220
aVbake
p221
aVbritish
p222
ag12
(g16
S'\x98r;\xa0\x96\x11B@'
p223
tp224
Rp225
VTue Sep 25 18:55:42 +0000 2012
p226
VTue Sep 25 20:02:11 +0000 2012
p227
tp228
a((lp229
Vwant
p230
aVhaha
p231
aVthem
p232
aVyeah
p233
aVneed
p234
aVgbbo
p235
aVstill
p236
aVi've
p237
aVafter
p238
aVthough
p239
ag12
(g16
S'\xfa\xe36\xb7\x1a37@'
p240
tp241
Rp242
VTue Sep 25 19:09:08 +0000 2012
p243
VTue Sep 25 20:15:18 +0000 2012
p244
tp245
a((lp246
Vhaha
p247
aVwant
p248
aVthem
p249
aVyeah
p250
aVonly
p251
aVgbbo
p252
aVright
p253
aVnext
p254
aVweek
p255
aVdoughnut
p256
ag12
(g16
S'b\x88:d5S7@'
p257
tp258
Rp259
VTue Sep 25 19:22:50 +0000 2012
p260
VTue Sep 25 20:27:59 +0000 2012
p261
tp262
a((lp263
Vactually
p264
aVfollow
p265
aVstill
p266
aVplease
p267
aVamazing
p268
aVwatch
p269
aVthank
p270
aVperfect
p271
aVboys
p272
aVidol
p273
ag12
(g16
S'\x04|\re\x97\xc1G@'
p274
tp275
Rp276
VTue Sep 25 19:36:08 +0000 2012
p277
VTue Sep 25 20:40:14 +0000 2012
p278
tp279
a((lp280
Vhaha
p281
aVwant
p282
aVonly
p283
aVyeah
p284
aVthem
p285
aVeven
p286
aVright
p287
aVstill
p288
aVsomeone
p289
aVi've
p290
ag12
(g16
S'\x86\xe8\xffz\xd8\x0e7@'
p291
tp292
Rp293
VTue Sep 25 19:49:26 +0000 2012
p294
VTue Sep 25 20:52:26 +0000 2012
p295
tp296
a((lp297
Vhaha
p298
aVwant
p299
aVthem
p300
aVonly
p301
aVyeah
p302
aVright
p303
aVnever
p304
aVcould
p305
aVsomeone
p306
aVwere
p307
ag12
(g16
S'=\xd5\xb2\xd7\x90\x889@'
p308
tp309
Rp310
VTue Sep 25 20:02:12 +0000 2012
p311
VTue Sep 25 21:04:26 +0000 2012
p312
tp313
a((lp314
Vhaha
p315
aVonly
p316
aVyeah
p317
aVwant
p318
aVthem
p319
aVthough
p320
aVstill
p321
aVnever
p322
aVcould
p323
aVwere
p324
ag12
(g16
S'0Q\xe8\n\xf8\xdb5@'
p325
tp326
Rp327
VTue Sep 25 20:15:18 +0000 2012
p328
VTue Sep 25 21:15:55 +0000 2012
p329
tp330
a((lp331
Vhaha
p332
aVonly
p333
aVneed
p334
aVyeah
p335
aVwant
p336
aVthem
p337
aVthough
p338
aVnever
p339
aVstill
p340
aVcould
p341
ag12
(g16
S'\x10\x0f\xa7\x07\x10\t7@'
p342
tp343
Rp344
VTue Sep 25 20:27:59 +0000 2012
p345
VTue Sep 25 21:27:16 +0000 2012
p346
tp347
a((lp348
Vhaha
p349
aVthem
p350
aVthough
p351
aVright
p352
aVnever
p353
aValways
p354
aVcould
p355
aVhere
p356
aVwere
p357
aVsomeone
p358
ag12
(g16
S'\xcc\xee\xc4\xed\xdcA6@'
p359
tp360
Rp361
VTue Sep 25 20:40:15 +0000 2012
p362
VTue Sep 25 21:40:48 +0000 2012
p363
tp364
a((lp365
Vhaha
p366
aVthem
p367
aVnever
p368
aVever
p369
aValways
p370
aVi've
p371
aVbest
p372
aVfirst
p373
aVwere
p374
aVseen
p375
ag12
(g16
S"(\xc6x=\xf0'8@"
p376
tp377
Rp378
VTue Sep 25 20:52:28 +0000 2012
p379
VTue Sep 25 21:53:59 +0000 2012
p380
tp381
a((lp382
Vhaha
p383
aVtomorrow
p384
aVnight
p385
aVneed
p386
aVthem
p387
aVnever
p388
aVthough
p389
aValways
p390
aVever
p391
aVseen
p392
ag12
(g16
S'\x84\xbb\x14\r/\xa96@'
p393
tp394
Rp395
VTue Sep 25 21:04:26 +0000 2012
p396
VTue Sep 25 22:08:13 +0000 2012
p397
tp398
a((lp399
Vthem
p400
aVmake
p401
aVnever
p402
aVbest
p403
aVi've
p404
aVever
p405
aVfirst
p406
aVwere
p407
aVthing
p408
aVseen
p409
ag12
(g16
S'\xa0\x01\xbbX\xd6\x16:@'
p410
tp411
Rp412
VTue Sep 25 21:15:56 +0000 2012
p413
VTue Sep 25 22:23:57 +0000 2012
p414
tp415
a((lp416
Vnight
p417
aVhaha
p418
aVwant
p419
aVthem
p420
aVnever
p421
aVmake
p422
aVi've
p423
aVbest
p424
aVgonna
p425
aVever
p426
ag12
(g16
S'\xea\xe9\xdf\xa5\xd9\xad6@'
p427
tp428
Rp429
VTue Sep 25 21:27:16 +0000 2012
p430
VTue Sep 25 22:42:55 +0000 2012
p431
tp432
a((lp433
Vthem
p434
aVi've
p435
aVnever
p436
aVbest
p437
aVlife
p438
aVever
p439
aVthing
p440
aVbefore
p441
aVseen
p442
aVheard
p443
ag12
(g16
S'\x04\xf5\xa6[}[;@'
p444
tp445
Rp446
VTue Sep 25 21:40:48 +0000 2012
p447
VTue Sep 25 23:06:32 +0000 2012
p448
tp449
a((lp450
Vwant
p451
aVi've
p452
aVbest
p453
aVthem
p454
aVlife
p455
aVnever
p456
aVonly
p457
aVever
p458
aVbefore
p459
aVseen
p460
ag12
(g16
S'H3\xd7=.K9@'
p461
tp462
Rp463
VTue Sep 25 21:54:00 +0000 2012
p464
VTue Sep 25 23:40:20 +0000 2012
p465
tp466
a((lp467
Vhaha
p468
aVneed
p469
aVtomorrow
p470
aVnever
p471
aVstill
p472
aVi've
p473
aVmake
p474
aVonly
p475
aVever
p476
aVseen
p477
ag12
(g16
S'\x9c\x1ff8\x97\x8e4@'
p478
tp479
Rp480
VTue Sep 25 22:08:14 +0000 2012
p481
VWed Sep 26 00:30:32 +0000 2012
p482
tp483
a((lp484
Vnever
p485
aVbest
p486
aVlife
p487
aVi've
p488
aVonly
p489
aVbefore
p490
aVever
p491
aVseen
p492
aVforget
p493
aVyou'd
p494
ag12
(g16
S'\x94\x84qe}\x0c8@'
p495
tp496
Rp497
VTue Sep 25 22:23:59 +0000 2012
p498
VWed Sep 26 01:42:34 +0000 2012
p499
tp500
a((lp501
Vnight
p502
aVnever
p503
aVlife
p504
aVbest
p505
aVonly
p506
aVi've
p507
aVbefore
p508
aVever
p509
aVseen
p510
aVforget
p511
ag12
(g16
S'\xc0\xeeb\x8e\x9f\xeb6@'
p512
tp513
Rp514
VTue Sep 25 22:42:56 +0000 2012
p515
VWed Sep 26 05:01:11 +0000 2012
p516
tp517
a((lp518
Vnight
p519
aVwork
p520
aVstill
p521
aVonly
p522
aVbest
p523
aVi've
p524
aVafter
p525
aVdown
p526
aVever
p527
aVbefore
p528
ag12
(g16
S'.\x8cd\xcc\x10\xf70@'
p529
tp530
Rp531
VTue Sep 25 23:06:32 +0000 2012
p532
VWed Sep 26 06:20:13 +0000 2012
p533
tp534
a((lp535
Vhappy
p536
aVbirthday
p537
aVgreat
p538
aVhope
p539
aVamazing
p540
aVwish
p541
aVbeautiful
p542
aVbaby
p543
aVmakes
p544
aVlovely
p545
ag12
(g16
S'\x18\x8f\x83\xd7\x159G@'
p546
tp547
Rp548
VTue Sep 25 23:40:27 +0000 2012
p549
VWed Sep 26 06:55:57 +0000 2012
p550
tp551
a((lp552
Vhappy
p553
aVgreat
p554
aVhope
p555
aVshit
p556
aVamazing
p557
aVwish
p558
aVlater
p559
aVlovely
p560
aVbaby
p561
aVlots
p562
ag12
(g16
S'\xa7\x81B\xe9\x06\x9bO@'
p563
tp564
Rp565
VWed Sep 26 00:30:33 +0000 2012
p566
VWed Sep 26 07:23:29 +0000 2012
p567
tp568
a((lp569
Vpolice
p570
aVplease
p571
aVfollowing
p572
aVofficers
p573
aVfallen
p574
aVcolleagues
p575
aVrecent
p576
aVmurders
p577
aVfollow
p578
aVtell
p579
ag12
(g16
S'\x8b\xafx\x0ev\xf4q@'
p580
tp581
Rp582
VWed Sep 26 01:42:36 +0000 2012
p583
VWed Sep 26 07:45:42 +0000 2012
p584
tp585
a((lp586
Vpolice
p587
aVplease
p588
aVfollowing
p589
aVrecent
p590
aVofficers
p591
aVfallen
p592
aVcolleagues
p593
aVmurders
p594
aVfollow
p595
aVaway
p596
ag12
(g16
S'T\x15\xc9\xcfbtu@'
p597
tp598
Rp599
VWed Sep 26 05:01:17 +0000 2012
p600
VWed Sep 26 08:10:53 +0000 2012
p601
tp602
a((lp603
Vpolice
p604
aVplease
p605
aVfollowing
p606
aVrecent
p607
aVofficers
p608
aVfallen
p609
aVcolleagues
p610
aVmurders
p611
aVfollow
p612
aVtell
p613
ag12
(g16
S'\x98!\xfc\xc4cxu@'
p614
tp615
Rp616
VWed Sep 26 06:20:17 +0000 2012
p617
VWed Sep 26 08:36:07 +0000 2012
p618
tp619
a((lp620
Vpolice
p621
aVplease
p622
aVfollow
p623
aVthanks
p624
aVfollowing
p625
aVcolleagues
p626
aVrecent
p627
aVofficers
p628
aVfallen
p629
aVmurders
p630
ag12
(g16
S'\xce\xcc\x06\xff}xu@'
p631
tp632
Rp633
VWed Sep 26 06:55:57 +0000 2012
p634
VWed Sep 26 08:59:23 +0000 2012
p635
tp636
a((lp637
Vpolice
p638
aVplease
p639
aVthanks
p640
aVfollow
p641
aVfollowing
p642
aVcolleagues
p643
aVrecent
p644
aVofficers
p645
aVfallen
p646
aVmurders
p647
ag12
(g16
S'\xce\xb04Jfxu@'
p648
tp649
Rp650
VWed Sep 26 07:23:30 +0000 2012
p651
VWed Sep 26 09:27:57 +0000 2012
p652
tp653
a((lp654
Vwork
p655
aVhaha
p656
aVneed
p657
aVstill
p658
aVyeah
p659
aVlook
p660
aVgreat
p661
aVnext
p662
aVafter
p663
aVfeel
p664
ag12
(g16
S"\x0f9\xab \xef'6@"
p665
tp666
Rp667
VWed Sep 26 07:45:43 +0000 2012
p668
VWed Sep 26 09:52:54 +0000 2012
p669
tp670
a((lp671
Vwork
p672
aVhaha
p673
aVneed
p674
aVyeah
p675
aVstill
p676
aVgreat
p677
aVthat's
p678
aVnext
p679
aVweek
p680
aVyear
p681
ag12
(g16
S'N\xa0;\xac?^8@'
p682
tp683
Rp684
VWed Sep 26 08:10:56 +0000 2012
p685
VWed Sep 26 10:18:31 +0000 2012
p686
tp687
a((lp688
Vhaha
p689
aVwork
p690
aVneed
p691
aVnight
p692
aVyeah
p693
aVstill
p694
aVnext
p695
aVthat's
p696
aVweek
p697
aVthough
p698
ag12
(g16
S'\x8f\xe0\xaa\x88R\xb1:@'
p699
tp700
Rp701
VWed Sep 26 08:36:08 +0000 2012
p702
VWed Sep 26 10:42:02 +0000 2012
p703
tp704
a((lp705
Vhaha
p706
aVneed
p707
aVyeah
p708
aVthat's
p709
aVstill
p710
aVnext
p711
aVweek
p712
aVthough
p713
aVyou're
p714
aVyear
p715
ag12
(g16
S'x\xda\xf5\xed\xb9);@'
p716
tp717
Rp718
VWed Sep 26 08:59:23 +0000 2012
p719
VWed Sep 26 11:05:12 +0000 2012
p720
tp721
a((lp722
Vneed
p723
aVthanks
p724
aVwork
p725
aVnight
p726
aVyeah
p727
aVthat's
p728
aVnext
p729
aVweek
p730
aVthough
p731
aVfirst
p732
ag12
(g16
S'\x9f\xc7\x1d\xb1/?7@'
p733
tp734
Rp735
VWed Sep 26 09:27:58 +0000 2012
p736
VWed Sep 26 11:28:38 +0000 2012
p737
tp738
a((lp739
Vhaha
p740
aVwork
p741
aVthanks
p742
aVyeah
p743
aVstill
p744
aVthough
p745
aVeven
p746
aVweek
p747
aVagain
p748
aVtill
p749
ag12
(g16
S'(\x02~\xfd\x84\xfa5@'
p750
tp751
Rp752
VWed Sep 26 09:52:55 +0000 2012
p753
VWed Sep 26 11:52:58 +0000 2012
p754
tp755
a((lp756
Vhaha
p757
aVwork
p758
aVstill
p759
aVyeah
p760
aVwant
p761
aVthem
p762
aVthough
p763
aVeven
p764
aVlife
p765
aVweek
p766
ag12
(g16
S' \x8bk-\xdf\n5@'
p767
tp768
Rp769
VWed Sep 26 10:18:33 +0000 2012
p770
VWed Sep 26 12:14:41 +0000 2012
p771
tp772
a((lp773
Vhaha
p774
aVwork
p775
aVneed
p776
aVwant
p777
aVnight
p778
aVstill
p779
aVi've
p780
aVnext
p781
aVweek
p782
aVtomorrow
p783
ag12
(g16
S'\x7f"\xebA\xef\x9f4@'
p784
tp785
Rp786
VWed Sep 26 10:42:02 +0000 2012
p787
VWed Sep 26 12:36:33 +0000 2012
p788
tp789
a((lp790
Vhaha
p791
aVwork
p792
aVneed
p793
aVwant
p794
aVyeah
p795
aVstill
p796
aVmake
p797
aVnext
p798
aVthem
p799
aVi've
p800
ag12
(g16
S'\xf8)\x1e\\\xc4\x0e4@'
p801
tp802
Rp803
VWed Sep 26 11:05:14 +0000 2012
p804
VWed Sep 26 12:58:52 +0000 2012
p805
tp806
a((lp807
Vhaha
p808
aVwork
p809
aVneed
p810
aVwant
p811
aVnight
p812
aVstill
p813
aVhere
p814
aVthanks
p815
aVonly
p816
aVsomething
p817
ag12
(g16
S'\x8c\xcf\xc6\xdf}\xff2@'
p818
tp819
Rp820
VWed Sep 26 11:28:40 +0000 2012
p821
VWed Sep 26 13:21:10 +0000 2012
p822
tp823
a((lp824
Vneed
p825
aVwork
p826
aVwant
p827
aVgreat
p828
aVstill
p829
aVyeah
p830
aVweek
p831
aVgonna
p832
aVyear
p833
aVtomorrow
p834
ag12
(g16
S'F\xd1\xadi*a2@'
p835
tp836
Rp837
VWed Sep 26 11:53:01 +0000 2012
p838
VWed Sep 26 13:42:52 +0000 2012
p839
tp840
a((lp841
Vwant
p842
aVwork
p843
aVthanks
p844
aVgreat
p845
aVnight
p846
aVyeah
p847
aVnext
p848
aVyou're
p849
aVweek
p850
aVyear
p851
ag12
(g16
S'\x16\x9f!n\xd2\xb22@'
p852
tp853
Rp854
VWed Sep 26 12:14:43 +0000 2012
p855
VWed Sep 26 14:05:07 +0000 2012
p856
tp857
a((lp858
Vthem
p859
aVi've
p860
aVstill
p861
aVthan
p862
aVdone
p863
aVbetter
p864
aVever
p865
aVnothing
p866
aVother
p867
aVeach
p868
ag12
(g16
S'\xa4p\xed\xaa\xf3\xd96@'
p869
tp870
Rp871
VWed Sep 26 12:36:35 +0000 2012
p872
VWed Sep 26 14:26:27 +0000 2012
p873
tp874
a((lp875
Vthanks
p876
aVhaha
p877
aVwork
p878
aVi've
p879
aVgreat
p880
aVyeah
p881
aVnext
p882
aVlooking
p883
aVweek
p884
aVmonth
p885
ag12
(g16
S'\xeb\xf1$\xd3;\x8e4@'
p886
tp887
Rp888
VWed Sep 26 12:58:54 +0000 2012
p889
VWed Sep 26 14:48:21 +0000 2012
p890
tp891
a((lp892
Vonly
p893
aVi've
p894
aVyeah
p895
aVmake
p896
aVthem
p897
aVnext
p898
aVhope
p899
aVthan
p900
aVfeel
p901
aVweek
p902
ag12
(g16
S'\xcf\x07A\x8f\x1b\x965@'
p903
tp904
Rp905
VWed Sep 26 13:21:10 +0000 2012
p906
VWed Sep 26 15:07:12 +0000 2012
p907
tp908
a((lp909
Vneed
p910
aVthanks
p911
aVwant
p912
aVyeah
p913
aVi've
p914
aVhope
p915
aVthan
p916
aVbetter
p917
aVnothing
p918
aVworse
p919
ag12
(g16
S'D\xf8\x14\x9f\xad\x955@'
p920
tp921
Rp922
VWed Sep 26 13:42:53 +0000 2012
p923
VWed Sep 26 15:24:54 +0000 2012
p924
tp925
a((lp926
Vfollow
p927
aVthanks
p928
aVplease
p929
aVtell
p930
aVcheryl
p931
aVchristmas
p932
aVlouis
p933
aVteamfollowback
p934
aVpleasee
p935
aVoffer
p936
ag12
(g16
S'\xdc\xfe\xb8]\x9f\x0cD@'
p937
tp938
Rp939
VWed Sep 26 14:05:08 +0000 2012
p940
VWed Sep 26 15:42:15 +0000 2012
p941
tp942
a((lp943
Vplease
p944
aVfollow
p945
aVthanks
p946
aVsomeone
p947
aVhwibbackstagebiz
p948
aVtell
p949
aVcheck
p950
aVcheryl
p951
aVlouis
p952
aVpleasee
p953
ag12
(g16
S'\xa5\x022\xd7\x02fG@'
p954
tp955
Rp956
VWed Sep 26 14:26:29 +0000 2012
p957
VWed Sep 26 16:00:07 +0000 2012
p958
tp959
a((lp960
Vplease
p961
aVfollow
p962
aVthanks
p963
aVyou're
p964
aVhwibbackstagebiz
p965
aVsomeone
p966
aVcheck
p967
aVcheryl
p968
aVlouis
p969
aVpleasee
p970
ag12
(g16
S'\x82\xf2x\xa0\x00\xa8G@'
p971
tp972
Rp973
VWed Sep 26 14:48:22 +0000 2012
p974
VWed Sep 26 16:17:08 +0000 2012
p975
tp976
a((lp977
Vplease
p978
aVfollow
p979
aVthanks
p980
aVtwitter
p981
aVcheryl
p982
aVmaybe
p983
aVcrazy
p984
aVheres
p985
aVrandom3eekintofollow
p986
aVlouis
p987
ag12
(g16
S'\xa0\xf5`\xbc\xb7\xfcG@'
p988
tp989
Rp990
VWed Sep 26 15:07:12 +0000 2012
p991
VWed Sep 26 16:33:56 +0000 2012
p992
tp993
a((lp994
Vplease
p995
aVfollow
p996
aVthanks
p997
aVsomeone
p998
aVtwitter
p999
aVcheryl
p1000
aVmaybe
p1001
aVcrazy
p1002
aVrandom3eekintofollow
p1003
aVheres
p1004
ag12
(g16
S"\xf6%'\x87\x04|F@"
p1005
tp1006
Rp1007
VWed Sep 26 15:24:54 +0000 2012
p1008
VWed Sep 26 16:50:56 +0000 2012
p1009
tp1010
a((lp1011
Vhaha
p1012
aVneed
p1013
aVwork
p1014
aVwant
p1015
aVonly
p1016
aVyeah
p1017
aVthat's
p1018
aVmate
p1019
aVweek
p1020
aVthough
p1021
ag12
(g16
S'\xafR\xe5f\x98\xc68@'
p1022
tp1023
Rp1024
VWed Sep 26 15:42:16 +0000 2012
p1025
VWed Sep 26 17:05:59 +0000 2012
p1026
tp1027
a((lp1028
Vhaha
p1029
aVneed
p1030
aVwork
p1031
aVonly
p1032
aVstill
p1033
aVnext
p1034
aVyeah
p1035
aVthat's
p1036
aVnice
p1037
aVmate
p1038
ag12
(g16
S'xn\x0fe\xcf\xc97@'
p1039
tp1040
Rp1041
VWed Sep 26 16:00:08 +0000 2012
p1042
VWed Sep 26 17:21:48 +0000 2012
p1043
tp1044
a((lp1045
Vhaha
p1046
aVwork
p1047
aVneed
p1048
aVwant
p1049
aVstill
p1050
aVonly
p1051
aVthem
p1052
aVthat's
p1053
aVyeah
p1054
aVweek
p1055
ag12
(g16
S'\xac\x9b\xa7l\xa5\xb94@'
p1056
tp1057
Rp1058
VWed Sep 26 16:17:09 +0000 2012
p1059
VWed Sep 26 17:36:35 +0000 2012
p1060
tp1061
a((lp1062
Vhaha
p1063
aVneed
p1064
aVwork
p1065
aVwant
p1066
aVstill
p1067
aVonly
p1068
aVi've
p1069
aVweek
p1070
aVlong
p1071
aVinto
p1072
ag12
(g16
S'\x0e\xcf\x13s\xaa\xc04@'
p1073
tp1074
Rp1075
VWed Sep 26 16:33:58 +0000 2012
p1076
VWed Sep 26 17:50:28 +0000 2012
p1077
tp1078
a((lp1079
Vhaha
p1080
aVneed
p1081
aVwant
p1082
aVwork
p1083
aVthem
p1084
aVstill
p1085
aVonly
p1086
aVi've
p1087
aVshould
p1088
aVdone
p1089
ag12
(g16
S'\xc8\xe0\xb0S\xc3\xed2@'
p1090
tp1091
Rp1092
VWed Sep 26 16:50:57 +0000 2012
p1093
VWed Sep 26 18:04:01 +0000 2012
p1094
tp1095
a((lp1096
Vhaha
p1097
aVneed
p1098
aVwork
p1099
aVthem
p1100
aVstill
p1101
aVtomorrow
p1102
aVshould
p1103
aVlooking
p1104
aVgreat
p1105
aVafter
p1106
ag12
(g16
S'\xafV\xf0j \x023@'
p1107
tp1108
Rp1109
VWed Sep 26 17:05:59 +0000 2012
p1110
VWed Sep 26 18:16:57 +0000 2012
p1111
tp1112
a((lp1113
Vfollow
p1114
aVplease
p1115
aVfirst
p1116
aVsince
p1117
aVloved
p1118
aVsprinkles
p1119
aVariana
p1120
aVvictorious
p1121
aVsang
p1122
aVxoxox
p1123
ag12
(g16
S'\\\xb8\xc2\x10VsX@'
p1124
tp1125
Rp1126
VWed Sep 26 17:21:50 +0000 2012
p1127
VWed Sep 26 18:29:49 +0000 2012
p1128
tp1129
a((lp1130
Vfollow
p1131
aVplease
p1132
aVfirst
p1133
aVsince
p1134
aVloved
p1135
aVsprinkles
p1136
aVariana
p1137
aVvictorious
p1138
aVsang
p1139
aVxoxox
p1140
ag12
(g16
S'\xc9z\xc2\x10VsX@'
p1141
tp1142
Rp1143
VWed Sep 26 17:24:02 +0000 2012
p1144
VWed Sep 26 18:31:43 +0000 2012
p1145
tp1146
a.