(lp0
((lp1
Vthem
p2
aVthanks
p3
aVmake
p4
aVfollow
p5
aVhappy
p6
aVhope
p7
aVplease
p8
aVyou're
p9
aVbirthday
p10
aVeveryone
p11
acnumpy.core.multiarray
scalar
p12
(cnumpy
dtype
p13
(S'f8'
p14
I0
I1
tp15
Rp16
(I3
S'<'
p17
NNNI-1
I-1
I0
tp18
bS'\xcc\x1fQt\x08"E@'
p19
tp20
Rp21
VTue Sep 25 15:49:40 +0000 2012
p22
VTue Sep 25 17:13:49 +0000 2012
p23
tp24
a((lp25
Vthem
p26
aVwant
p27
aVmake
p28
aVhappy
p29
aVhope
p30
aVfollow
p31
aVplease
p32
aVyou're
p33
aVbirthday
p34
aVeveryone
p35
ag12
(g16
S'\xfb\x9c<\x02\xa6JF@'
p36
tp37
Rp38
VTue Sep 25 15:58:27 +0000 2012
p39
VTue Sep 25 17:21:27 +0000 2012
p40
tp41
a((lp42
Vthem
p43
aVwant
p44
aVmake
p45
aVhappy
p46
aVfollow
p47
aVhope
p48
aVbirthday
p49
aVyou're
p50
aVplease
p51
aVeveryone
p52
ag12
(g16
S'\xdf\x9a\xcd\x83\x81\xd6M@'
p53
tp54
Rp55
VTue Sep 25 16:07:06 +0000 2012
p56
VTue Sep 25 17:29:38 +0000 2012
p57
tp58
a((lp59
Vwant
p60
aVthem
p61
aVmake
p62
aVhappy
p63
aVfollow
p64
aVhope
p65
aVbirthday
p66
aVplease
p67
aVyou're
p68
aVsense
p69
ag12
(g16
S'\xfd\x91Q6\xb9\xedP@'
p70
tp71
Rp72
VTue Sep 25 16:16:13 +0000 2012
p73
VTue Sep 25 17:37:47 +0000 2012
p74
tp75
a((lp76
Vthanks
p77
aVthem
p78
aVmake
p79
aVhappy
p80
aVfollow
p81
aVbirthday
p82
aVhope
p83
aVplease
p84
aVyou're
p85
aVsense
p86
ag12
(g16
S')l\x156\x9a\x01N@'
p87
tp88
Rp89
VTue Sep 25 16:24:36 +0000 2012
p90
VTue Sep 25 17:45:44 +0000 2012
p91
tp92
a((lp93
Vwant
p94
aVthem
p95
aVmake
p96
aVfollow
p97
aVplease
p98
aVvery
p99
aVhappy
p100
aVbest
p101
aVbirthday
p102
aVyou're
p103
ag12
(g16
S'\xce\xbf\xbe[\xc0*C@'
p104
tp105
Rp106
VTue Sep 25 16:33:21 +0000 2012
p107
VTue Sep 25 17:53:13 +0000 2012
p108
tp109
a((lp110
Vwant
p111
aVthem
p112
aVplease
p113
aVmake
p114
aVhappy
p115
aVfollow
p116
aVbirthday
p117
aVyou're
p118
aVmakes
p119
aVsense
p120
ag12
(g16
S'Qa\x02\x05\x93lC@'
p121
tp122
Rp123
VTue Sep 25 16:41:30 +0000 2012
p124
VTue Sep 25 18:00:01 +0000 2012
p125
tp126
a((lp127
Vwant
p128
aVthanks
p129
aVplease
p130
aVmake
p131
aVhappy
p132
aVfollow
p133
aVbirthday
p134
aVsure
p135
aVyou're
p136
aVsense
p137
ag12
(g16
S'\t:\xa9"/3C@'
p138
tp139
Rp140
VTue Sep 25 16:49:11 +0000 2012
p141
VTue Sep 25 18:07:29 +0000 2012
p142
tp143
a((lp144
Vwant
p145
aVmake
p146
aVplease
p147
aVhappy
p148
aVvery
p149
aVfollow
p150
aVbirthday
p151
aVgonna
p152
aVsure
p153
aVsense
p154
ag12
(g16
S'\x80\xfa\xba\xe2\xd0\xaaG@'
p155
tp156
Rp157
VTue Sep 25 16:56:47 +0000 2012
p158
VTue Sep 25 18:14:36 +0000 2012
p159
tp160
a((lp161
Vwant
p162
aVmake
p163
aVhappy
p164
aVvery
p165
aVplease
p166
aVgonna
p167
aVfollow
p168
aVbirthday
p169
aVsure
p170
aVsense
p171
ag12
(g16
S'\xc4\xe0\xfe\\\xfc\x97F@'
p172
tp173
Rp174
VTue Sep 25 17:05:18 +0000 2012
p175
VTue Sep 25 18:21:04 +0000 2012
p176
tp177
a((lp178
Vwant
p179
aVthanks
p180
aVmake
p181
aVhappy
p182
aVvery
p183
aVplease
p184
aVgonna
p185
aVfollow
p186
aVbirthday
p187
aVsure
p188
ag12
(g16
S'\xf3,\x16\x1c\x85OF@'
p189
tp190
Rp191
VTue Sep 25 17:13:49 +0000 2012
p192
VTue Sep 25 18:27:56 +0000 2012
p193
tp194
a((lp195
Vwant
p196
aVthanks
p197
aVlife
p198
aVmake
p199
aVhappy
p200
aVgonna
p201
aVplease
p202
aVfollow
p203
aVbirthday
p204
aVsure
p205
ag12
(g16
S'\xa2\x03`m\xa2SE@'
p206
tp207
Rp208
VTue Sep 25 17:21:28 +0000 2012
p209
VTue Sep 25 18:34:34 +0000 2012
p210
tp211
a((lp212
Vwork
p213
aVyeah
p214
aVi've
p215
aVnever
p216
aVagain
p217
aVafter
p218
aVweek
p219
aVever
p220
aVseen
p221
aVthese
p222
ag12
(g16
S'2>\xa1\x80\x16\x054@'
p223
tp224
Rp225
VTue Sep 25 17:29:40 +0000 2012
p226
VTue Sep 25 18:41:25 +0000 2012
p227
tp228
a((lp229
Vneed
p230
aVi've
p231
aVnever
p232
aVagain
p233
aVafter
p234
aVlook
p235
aVdays
p236
aVbetter
p237
aVbefore
p238
aVseen
p239
ag12
(g16
S'[\xd2\xfe\xa3\xed<5@'
p240
tp241
Rp242
VTue Sep 25 17:37:48 +0000 2012
p243
VTue Sep 25 18:48:42 +0000 2012
p244
tp245
a((lp246
Vhaha
p247
aVwant
p248
aVyeah
p249
aVnever
p250
aVhere
p251
aVlife
p252
aVagain
p253
aVafter
p254
aVdays
p255
aVseen
p256
ag12
(g16
S'\xa8\x97\x11\x02\xca\xa53@'
p257
tp258
Rp259
VTue Sep 25 17:45:45 +0000 2012
p260
VTue Sep 25 18:55:42 +0000 2012
p261
tp262
a((lp263
Vhaha
p264
aVneed
p265
aVstill
p266
aVwork
p267
aVhere
p268
aVmake
p269
aVdays
p270
aVafter
p271
aVseen
p272
aVhard
p273
ag12
(g16
S'\xa0\x08^\xf5)\xa01@'
p274
tp275
Rp276
VTue Sep 25 17:53:13 +0000 2012
p277
VTue Sep 25 19:02:40 +0000 2012
p278
tp279
a((lp280
Vstill
p281
aVwant
p282
aVthem
p283
aVright
p284
aVmake
p285
aVafter
p286
aVthough
p287
aVbetter
p288
aVseen
p289
aVhard
p290
ag12
(g16
S'\xfa\xcd\xa3\x92\xef\xb31@'
p291
tp292
Rp293
VTue Sep 25 18:00:01 +0000 2012
p294
VTue Sep 25 19:09:08 +0000 2012
p295
tp296
a((lp297
Vhaha
p298
aVstill
p299
aVwork
p300
aVi've
p301
aVnever
p302
aVafter
p303
aVdays
p304
aVever
p305
aVseen
p306
aVseeing
p307
ag12
(g16
S'\x13>\x0b=*\xa84@'
p308
tp309
Rp310
VTue Sep 25 18:07:30 +0000 2012
p311
VTue Sep 25 19:16:00 +0000 2012
p312
tp313
a((lp314
Vwork
p315
aVyeah
p316
aVstill
p317
aVthem
p318
aVi've
p319
aVhere
p320
aVafter
p321
aVseen
p322
aVwithout
p323
aVgone
p324
ag12
(g16
S'C\x11\xf9_1\xce6@'
p325
tp326
Rp327
VTue Sep 25 18:14:36 +0000 2012
p328
VTue Sep 25 19:22:50 +0000 2012
p329
tp330
a((lp331
Vstill
p332
aVthem
p333
aVi've
p334
aVseen
p335
aVwithout
p336
aVgone
p337
aVhaven't
p338
aVseeing
p339
aVlongest
p340
aVbayside
p341
ag12
(g16
S'(Dc\xe6\xdam7@'
p342
tp343
Rp344
VTue Sep 25 18:21:07 +0000 2012
p345
VTue Sep 25 19:29:07 +0000 2012
p346
tp347
a((lp348
Vthem
p349
aVwork
p350
aVstill
p351
aVnever
p352
aVhere
p353
aVi've
p354
aVafter
p355
aVseen
p356
aVseeing
p357
aVhaven't
p358
ag12
(g16
S'!W\xf7(%\\6@'
p359
tp360
Rp361
VTue Sep 25 18:27:56 +0000 2012
p362
VTue Sep 25 19:36:08 +0000 2012
p363
tp364
a((lp365
Vgreat
p366
aVgbbo
p367
aVnight
p368
aVnice
p369
aVwatch
p370
aVwatching
p371
aVshow
p372
aVbake
p373
aVbritish
p374
aVspend
p375
ag12
(g16
S'@\x19\xfb@`\xfa@@'
p376
tp377
Rp378
VTue Sep 25 18:34:35 +0000 2012
p379
VTue Sep 25 19:42:47 +0000 2012
p380
tp381
a((lp382
Vgreat
p383
aVgbbo
p384
aVnight
p385
aVtomorrow
p386
aVnice
p387
aVwatching
p388
aVshow
p389
aVbake
p390
aVfree
p391
aVbritish
p392
ag12
(g16
S'f\xc1\xdf\x8c\x82_B@'
p393
tp394
Rp395
VTue Sep 25 18:41:25 +0000 2012
p396
VTue Sep 25 19:49:25 +0000 2012
p397
tp398
a((lp399
Vgbbo
p400
aVgreat
p401
aVnight
p402
aVnice
p403
aVgonna
p404
aVwatching
p405
aVshow
p406
aVhalf
p407
aVbake
p408
aVbritish
p409
ag12
(g16
S"\x1f\xb4'\xb8\x8d\x07A@"
p410
tp411
Rp412
VTue Sep 25 18:48:42 +0000 2012
p413
VTue Sep 25 19:55:54 +0000 2012
p414
tp415
a((lp416
Vgbbo
p417
aVgreat
p418
aVnight
p419
aVnice
p420
aVgonna
p421
aVweek
p422
aVshow
p423
aVwatching
p424
aVbake
p425
aVbritish
p426
ag12
(g16
S'\x98r;\xa0\x96\x11B@'
p427
tp428
Rp429
VTue Sep 25 18:55:42 +0000 2012
p430
VTue Sep 25 20:02:11 +0000 2012
p431
tp432
a((lp433
Vthem
p434
aVstill
p435
aVi've
p436
aVseen
p437
aVhaven't
p438
aVwithout
p439
aVgone
p440
aVseeing
p441
aVlongest
p442
aVbayside
p443
ag12
(g16
S'FI\x92\x1cl\x078@'
p444
tp445
Rp446
VTue Sep 25 19:02:46 +0000 2012
p447
VTue Sep 25 20:09:06 +0000 2012
p448
tp449
a((lp450
Vwant
p451
aVhaha
p452
aVthem
p453
aVyeah
p454
aVneed
p455
aVgbbo
p456
aVstill
p457
aVi've
p458
aVafter
p459
aVthough
p460
ag12
(g16
S'\xfa\xe36\xb7\x1a37@'
p461
tp462
Rp463
VTue Sep 25 19:09:08 +0000 2012
p464
VTue Sep 25 20:15:18 +0000 2012
p465
tp466
a((lp467
Vhaha
p468
aVwant
p469
aVthem
p470
aVyeah
p471
aVonly
p472
aVwork
p473
aVgbbo
p474
aVnext
p475
aVafter
p476
aVweek
p477
ag12
(g16
S'\x8e\xd0.\xc8\x8e!8@'
p478
tp479
Rp480
VTue Sep 25 19:16:01 +0000 2012
p481
VTue Sep 25 20:21:26 +0000 2012
p482
tp483
a((lp484
Vhaha
p485
aVwant
p486
aVthem
p487
aVyeah
p488
aVonly
p489
aVgbbo
p490
aVright
p491
aVnext
p492
aVweek
p493
aVdoughnut
p494
ag12
(g16
S'b\x88:d5S7@'
p495
tp496
Rp497
VTue Sep 25 19:22:50 +0000 2012
p498
VTue Sep 25 20:27:59 +0000 2012
p499
tp500
a((lp501
Vhaha
p502
aVwant
p503
aVthem
p504
aVonly
p505
aVyeah
p506
aVright
p507
aVnext
p508
aVgbbo
p509
aVweek
p510
aVafter
p511
ag12
(g16
S'\x08\x1a\xf4\xea\x08\x926@'
p512
tp513
Rp514
VTue Sep 25 19:29:08 +0000 2012
p515
VTue Sep 25 20:34:12 +0000 2012
p516
tp517
a((lp518
Vactually
p519
aVfollow
p520
aVstill
p521
aVplease
p522
aVamazing
p523
aVwatch
p524
aVthank
p525
aVperfect
p526
aVboys
p527
aVidol
p528
ag12
(g16
S'\x04|\re\x97\xc1G@'
p529
tp530
Rp531
VTue Sep 25 19:36:08 +0000 2012
p532
VTue Sep 25 20:40:14 +0000 2012
p533
tp534
a((lp535
Vhaha
p536
aVwant
p537
aVthem
p538
aVonly
p539
aVyeah
p540
aVright
p541
aVstill
p542
aVi've
p543
aVthough
p544
aVsomeone
p545
ag12
(g16
S'\xdcF3\\\x18\xc86@'
p546
tp547
Rp548
VTue Sep 25 19:42:48 +0000 2012
p549
VTue Sep 25 20:46:27 +0000 2012
p550
tp551
a((lp552
Vhaha
p553
aVwant
p554
aVonly
p555
aVyeah
p556
aVthem
p557
aVeven
p558
aVright
p559
aVstill
p560
aVsomeone
p561
aVi've
p562
ag12
(g16
S'\x86\xe8\xffz\xd8\x0e7@'
p563
tp564
Rp565
VTue Sep 25 19:49:26 +0000 2012
p566
VTue Sep 25 20:52:26 +0000 2012
p567
tp568
a((lp569
Vhaha
p570
aVneed
p571
aVwant
p572
aVonly
p573
aVthem
p574
aVyeah
p575
aVright
p576
aVi've
p577
aVthough
p578
aVsomeone
p579
ag12
(g16
S'A4\xb9\x18A]8@'
p580
tp581
Rp582
VTue Sep 25 19:55:57 +0000 2012
p583
VTue Sep 25 20:58:27 +0000 2012
p584
tp585
a((lp586
Vhaha
p587
aVwant
p588
aVthem
p589
aVonly
p590
aVyeah
p591
aVright
p592
aVnever
p593
aVcould
p594
aVsomeone
p595
aVwere
p596
ag12
(g16
S'=\xd5\xb2\xd7\x90\x889@'
p597
tp598
Rp599
VTue Sep 25 20:02:12 +0000 2012
p600
VTue Sep 25 21:04:26 +0000 2012
p601
tp602
a((lp603
Vwant
p604
aVthem
p605
aVyeah
p606
aVright
p607
aVthough
p608
aVhere
p609
aVsomeone
p610
aVi've
p611
aVnever
p612
aVdidn't
p613
ag12
(g16
S'\x88J<\x92/\x9a6@'
p614
tp615
Rp616
VTue Sep 25 20:09:07 +0000 2012
p617
VTue Sep 25 21:09:59 +0000 2012
p618
tp619
a((lp620
Vhaha
p621
aVonly
p622
aVyeah
p623
aVwant
p624
aVthem
p625
aVthough
p626
aVstill
p627
aVnever
p628
aVcould
p629
aVwere
p630
ag12
(g16
S'0Q\xe8\n\xf8\xdb5@'
p631
tp632
Rp633
VTue Sep 25 20:15:18 +0000 2012
p634
VTue Sep 25 21:15:55 +0000 2012
p635
tp636
a((lp637
Vhaha
p638
aVonly
p639
aVyeah
p640
aVthem
p641
aVthough
p642
aVstill
p643
aVnever
p644
aVcould
p645
aVsomeone
p646
aVhere
p647
ag12
(g16
S'\xe2\x8a(\xcf\xe9p6@'
p648
tp649
Rp650
VTue Sep 25 20:21:27 +0000 2012
p651
VTue Sep 25 21:21:24 +0000 2012
p652
tp653
a((lp654
Vhaha
p655
aVonly
p656
aVneed
p657
aVyeah
p658
aVwant
p659
aVthem
p660
aVthough
p661
aVnever
p662
aVstill
p663
aVcould
p664
ag12
(g16
S'\x10\x0f\xa7\x07\x10\t7@'
p665
tp666
Rp667
VTue Sep 25 20:27:59 +0000 2012
p668
VTue Sep 25 21:27:16 +0000 2012
p669
tp670
a((lp671
Vhaha
p672
aVtomorrow
p673
aVneed
p674
aVonly
p675
aVwant
p676
aVthem
p677
aVnever
p678
aVi've
p679
aVcould
p680
aVsomeone
p681
ag12
(g16
S'\xa5gv\xd2\xea\xea4@'
p682
tp683
Rp684
VTue Sep 25 20:34:12 +0000 2012
p685
VTue Sep 25 21:33:35 +0000 2012
p686
tp687
a((lp688
Vhaha
p689
aVthem
p690
aVthough
p691
aVright
p692
aVnever
p693
aValways
p694
aVcould
p695
aVhere
p696
aVwere
p697
aVsomeone
p698
ag12
(g16
S'\xcc\xee\xc4\xed\xdcA6@'
p699
tp700
Rp701
VTue Sep 25 20:40:15 +0000 2012
p702
VTue Sep 25 21:40:48 +0000 2012
p703
tp704
a((lp705
Vhaha
p706
aVonly
p707
aVthem
p708
aVnever
p709
aVthough
p710
aVmake
p711
aValways
p712
aVcould
p713
aVwere
p714
aVteam
p715
ag12
(g16
S'\x9c\xba\xfeF\xdb\xcb4@'
p716
tp717
Rp718
VTue Sep 25 20:46:28 +0000 2012
p719
VTue Sep 25 21:47:02 +0000 2012
p720
tp721
a((lp722
Vhaha
p723
aVthem
p724
aVnever
p725
aVever
p726
aValways
p727
aVi've
p728
aVbest
p729
aVfirst
p730
aVwere
p731
aVseen
p732
ag12
(g16
S"(\xc6x=\xf0'8@"
p733
tp734
Rp735
VTue Sep 25 20:52:28 +0000 2012
p736
VTue Sep 25 21:53:59 +0000 2012
p737
tp738
a((lp739
Vhaha
p740
aVyeah
p741
aVthem
p742
aVnever
p743
aVmake
p744
aValways
p745
aVi've
p746
aVfirst
p747
aVbest
p748
aVwere
p749
ag12
(g16
S'\xa4\xd4\x17(\x8c(6@'
p750
tp751
Rp752
VTue Sep 25 20:58:28 +0000 2012
p753
VTue Sep 25 22:01:09 +0000 2012
p754
tp755
a((lp756
Vhaha
p757
aVtomorrow
p758
aVnight
p759
aVneed
p760
aVthem
p761
aVnever
p762
aVthough
p763
aValways
p764
aVever
p765
aVseen
p766
ag12
(g16
S'\x84\xbb\x14\r/\xa96@'
p767
tp768
Rp769
VTue Sep 25 21:04:26 +0000 2012
p770
VTue Sep 25 22:08:13 +0000 2012
p771
tp772
a((lp773
Vhaha
p774
aVnight
p775
aVwant
p776
aVneed
p777
aVthat's
p778
aVonly
p779
aVthem
p780
aVnever
p781
aVmake
p782
aVthough
p783
ag12
(g16
S'\x8e[LX\xeb,5@'
p784
tp785
Rp786
VTue Sep 25 21:09:59 +0000 2012
p787
VTue Sep 25 22:16:06 +0000 2012
p788
tp789
a((lp790
Vthem
p791
aVmake
p792
aVnever
p793
aVbest
p794
aVi've
p795
aVever
p796
aVfirst
p797
aVwere
p798
aVthing
p799
aVseen
p800
ag12
(g16
S'\xa0\x01\xbbX\xd6\x16:@'
p801
tp802
Rp803
VTue Sep 25 21:15:56 +0000 2012
p804
VTue Sep 25 22:23:57 +0000 2012
p805
tp806
a((lp807
Vhaha
p808
aVyeah
p809
aVthem
p810
aVmake
p811
aVnever
p812
aVi've
p813
aVbest
p814
aVever
p815
aVthing
p816
aVseen
p817
ag12
(g16
S'\x0c7^\xfbs\x109@'
p818
tp819
Rp820
VTue Sep 25 21:21:24 +0000 2012
p821
VTue Sep 25 22:32:49 +0000 2012
p822
tp823
a((lp824
Vnight
p825
aVhaha
p826
aVwant
p827
aVthem
p828
aVnever
p829
aVmake
p830
aVi've
p831
aVbest
p832
aVgonna
p833
aVever
p834
ag12
(g16
S'\xea\xe9\xdf\xa5\xd9\xad6@'
p835
tp836
Rp837
VTue Sep 25 21:27:16 +0000 2012
p838
VTue Sep 25 22:42:55 +0000 2012
p839
tp840
a((lp841
Vhaha
p842
aVtomorrow
p843
aVwant
p844
aVthem
p845
aVyeah
p846
aVmake
p847
aVnever
p848
aVthat's
p849
aVgonna
p850
aVever
p851
ag12
(g16
S'T\x1d7l\xdc\xa15@'
p852
tp853
Rp854
VTue Sep 25 21:33:37 +0000 2012
p855
VTue Sep 25 22:54:18 +0000 2012
p856
tp857
a((lp858
Vthem
p859
aVi've
p860
aVnever
p861
aVbest
p862
aVlife
p863
aVever
p864
aVthing
p865
aVbefore
p866
aVseen
p867
aVheard
p868
ag12
(g16
S'\x04\xf5\xa6[}[;@'
p869
tp870
Rp871
VTue Sep 25 21:40:48 +0000 2012
p872
VTue Sep 25 23:06:32 +0000 2012
p873
tp874
a((lp875
Vthem
p876
aVi've
p877
aVnever
p878
aVlife
p879
aVbest
p880
aVonly
p881
aVever
p882
aVthing
p883
aVbefore
p884
aVseen
p885
ag12
(g16
S'{\x99b\x1b\xcf ;@'
p886
tp887
Rp888
VTue Sep 25 21:47:03 +0000 2012
p889
VTue Sep 25 23:20:53 +0000 2012
p890
tp891
a((lp892
Vwant
p893
aVi've
p894
aVbest
p895
aVthem
p896
aVlife
p897
aVnever
p898
aVonly
p899
aVever
p900
aVbefore
p901
aVseen
p902
ag12
(g16
S'H3\xd7=.K9@'
p903
tp904
Rp905
VTue Sep 25 21:54:00 +0000 2012
p906
VTue Sep 25 23:40:20 +0000 2012
p907
tp908
a((lp909
Vnight
p910
aVhaha
p911
aVwant
p912
aVyeah
p913
aVbest
p914
aVthem
p915
aVnever
p916
aVgonna
p917
aVthough
p918
aVright
p919
ag12
(g16
S'nO\xc3\xb1\xe9\x8d6@'
p920
tp921
Rp922
VTue Sep 25 22:01:10 +0000 2012
p923
VWed Sep 26 00:02:50 +0000 2012
p924
tp925
a((lp926
Vhaha
p927
aVneed
p928
aVtomorrow
p929
aVnever
p930
aVstill
p931
aVi've
p932
aVmake
p933
aVonly
p934
aVever
p935
aVseen
p936
ag12
(g16
S'\x9c\x1ff8\x97\x8e4@'
p937
tp938
Rp939
VTue Sep 25 22:08:14 +0000 2012
p940
VWed Sep 26 00:30:32 +0000 2012
p941
tp942
a((lp943
Vnever
p944
aVbest
p945
aVi've
p946
aVonly
p947
aVthing
p948
aVbefore
p949
aVever
p950
aVevery
p951
aVseen
p952
aVforget
p953
ag12
(g16
S'I~z\x8c\x14\xdb5@'
p954
tp955
Rp956
VTue Sep 25 22:16:06 +0000 2012
p957
VWed Sep 26 01:02:14 +0000 2012
p958
tp959
a((lp960
Vnever
p961
aVbest
p962
aVlife
p963
aVi've
p964
aVonly
p965
aVbefore
p966
aVever
p967
aVseen
p968
aVforget
p969
aVyou'd
p970
ag12
(g16
S'\x94\x84qe}\x0c8@'
p971
tp972
Rp973
VTue Sep 25 22:23:59 +0000 2012
p974
VWed Sep 26 01:42:34 +0000 2012
p975
tp976
a((lp977
Vnever
p978
aVbest
p979
aVlife
p980
aVonly
p981
aVi've
p982
aVbefore
p983
aVever
p984
aVseen
p985
aVeverything
p986
aVforget
p987
ag12
(g16
S'\xf0\xceX\x87`C8@'
p988
tp989
Rp990
VTue Sep 25 22:32:51 +0000 2012
p991
VWed Sep 26 03:04:47 +0000 2012
p992
tp993
a((lp994
Vnight
p995
aVnever
p996
aVlife
p997
aVbest
p998
aVonly
p999
aVi've
p1000
aVbefore
p1001
aVever
p1002
aVseen
p1003
aVforget
p1004
ag12
(g16
S'\xc0\xeeb\x8e\x9f\xeb6@'
p1005
tp1006
Rp1007
VTue Sep 25 22:42:56 +0000 2012
p1008
VWed Sep 26 05:01:11 +0000 2012
p1009
tp1010
a((lp1011
Vnever
p1012
aVonly
p1013
aVi've
p1014
aVbefore
p1015
aVseen
p1016
aVforget
p1017
aVeverything
p1018
aVyou'd
p1019
aVbible
p1020
aVchurch
p1021
ag12
(g16
S'\xbe\xb8\x0e\x14V)6@'
p1022
tp1023
Rp1024
VTue Sep 25 22:54:19 +0000 2012
p1025
VWed Sep 26 05:53:17 +0000 2012
p1026
tp1027
a((lp1028
Vnight
p1029
aVwork
p1030
aVstill
p1031
aVonly
p1032
aVbest
p1033
aVi've
p1034
aVafter
p1035
aVdown
p1036
aVever
p1037
aVbefore
p1038
ag12
(g16
S'.\x8cd\xcc\x10\xf70@'
p1039
tp1040
Rp1041
VTue Sep 25 23:06:32 +0000 2012
p1042
VWed Sep 26 06:20:13 +0000 2012
p1043
tp1044
a((lp1045
Vhappy
p1046
aVbirthday
p1047
aVhope
p1048
aVgreat
p1049
aVamazing
p1050
aVlooks
p1051
aVbeautiful
p1052
aVwish
p1053
aVbaby
p1054
aVlovely
p1055
ag12
(g16
S':\xa8\xf6/_\xc9E@'
p1056
tp1057
Rp1058
VTue Sep 25 23:20:54 +0000 2012
p1059
VWed Sep 26 06:39:52 +0000 2012
p1060
tp1061
a((lp1062
Vhappy
p1063
aVbirthday
p1064
aVgreat
p1065
aVhope
p1066
aVamazing
p1067
aVwish
p1068
aVbeautiful
p1069
aVbaby
p1070
aVmakes
p1071
aVlovely
p1072
ag12
(g16
S'\x18\x8f\x83\xd7\x159G@'
p1073
tp1074
Rp1075
VTue Sep 25 23:40:27 +0000 2012
p1076
VWed Sep 26 06:55:57 +0000 2012
p1077
tp1078
a((lp1079
Vhappy
p1080
aVbirthday
p1081
aVhope
p1082
aVgreat
p1083
aVshit
p1084
aVamazing
p1085
aVbeautiful
p1086
aVlovely
p1087
aVbaby
p1088
aVlots
p1089
ag12
(g16
S'\r\xc7DO\xbc\xf6M@'
p1090
tp1091
Rp1092
VWed Sep 26 00:02:52 +0000 2012
p1093
VWed Sep 26 07:10:31 +0000 2012
p1094
tp1095
a((lp1096
Vhappy
p1097
aVgreat
p1098
aVhope
p1099
aVshit
p1100
aVamazing
p1101
aVwish
p1102
aVlater
p1103
aVlovely
p1104
aVbaby
p1105
aVlots
p1106
ag12
(g16
S'\xa7\x81B\xe9\x06\x9bO@'
p1107
tp1108
Rp1109
VWed Sep 26 00:30:33 +0000 2012
p1110
VWed Sep 26 07:23:29 +0000 2012
p1111
tp1112
a((lp1113
Vhappy
p1114
aVgreat
p1115
aVhope
p1116
aVshit
p1117
aVever
p1118
aVamazing
p1119
aVwish
p1120
aVlater
p1121
aVlovely
p1122
aVlots
p1123
ag12
(g16
S'\xf1\x98\xa6\x06P\x84P@'
p1124
tp1125
Rp1126
VWed Sep 26 01:02:14 +0000 2012
p1127
VWed Sep 26 07:34:25 +0000 2012
p1128
tp1129
a((lp1130
Vpolice
p1131
aVplease
p1132
aVfollowing
p1133
aVofficers
p1134
aVfallen
p1135
aVcolleagues
p1136
aVrecent
p1137
aVmurders
p1138
aVfollow
p1139
aVtell
p1140
ag12
(g16
S'\x8b\xafx\x0ev\xf4q@'
p1141
tp1142
Rp1143
VWed Sep 26 01:42:36 +0000 2012
p1144
VWed Sep 26 07:45:42 +0000 2012
p1145
tp1146
a((lp1147
Vpolice
p1148
aVplease
p1149
aVfollowing
p1150
aVrecent
p1151
aVofficers
p1152
aVfallen
p1153
aVcolleagues
p1154
aVmurders
p1155
aVfollow
p1156
aVaway
p1157
ag12
(g16
S'\xfa8\r+ytu@'
p1158
tp1159
Rp1160
VWed Sep 26 03:05:20 +0000 2012
p1161
VWed Sep 26 07:58:02 +0000 2012
p1162
tp1163
a((lp1164
Vpolice
p1165
aVplease
p1166
aVfollowing
p1167
aVrecent
p1168
aVofficers
p1169
aVfallen
p1170
aVcolleagues
p1171
aVmurders
p1172
aVfollow
p1173
aVaway
p1174
ag12
(g16
S'T\x15\xc9\xcfbtu@'
p1175
tp1176
Rp1177
VWed Sep 26 05:01:17 +0000 2012
p1178
VWed Sep 26 08:10:53 +0000 2012
p1179
tp1180
a((lp1181
Vpolice
p1182
aVplease
p1183
aVthanks
p1184
aVfollowing
p1185
aVrecent
p1186
aVofficers
p1187
aVfallen
p1188
aVcolleagues
p1189
aVmurders
p1190
aVfollow
p1191
ag12
(g16
S'\xe8\xe9\xa7\rBxu@'
p1192
tp1193
Rp1194
VWed Sep 26 05:53:18 +0000 2012
p1195
VWed Sep 26 08:23:47 +0000 2012
p1196
tp1197
a((lp1198
Vpolice
p1199
aVplease
p1200
aVfollowing
p1201
aVrecent
p1202
aVofficers
p1203
aVfallen
p1204
aVcolleagues
p1205
aVmurders
p1206
aVfollow
p1207
aVtell
p1208
ag12
(g16
S'\x98!\xfc\xc4cxu@'
p1209
tp1210
Rp1211
VWed Sep 26 06:20:17 +0000 2012
p1212
VWed Sep 26 08:36:07 +0000 2012
p1213
tp1214
a((lp1215
Vpolice
p1216
aVplease
p1217
aVthanks
p1218
aVfollow
p1219
aVfollowing
p1220
aVrecent
p1221
aVofficers
p1222
aVcolleagues
p1223
aVmurders
p1224
aVfallen
p1225
ag12
(g16
S'\xe1\xbb\x8a\xe5\x97xu@'
p1226
tp1227
Rp1228
VWed Sep 26 06:39:52 +0000 2012
p1229
VWed Sep 26 08:47:25 +0000 2012
p1230
tp1231
a((lp1232
Vpolice
p1233
aVplease
p1234
aVfollow
p1235
aVthanks
p1236
aVfollowing
p1237
aVcolleagues
p1238
aVrecent
p1239
aVofficers
p1240
aVfallen
p1241
aVmurders
p1242
ag12
(g16
S'\xce\xcc\x06\xff}xu@'
p1243
tp1244
Rp1245
VWed Sep 26 06:55:57 +0000 2012
p1246
VWed Sep 26 08:59:23 +0000 2012
p1247
tp1248
a((lp1249
Vpolice
p1250
aVplease
p1251
aVfollow
p1252
aVfollowing
p1253
aVcolleagues
p1254
aVrecent
p1255
aVofficers
p1256
aVfallen
p1257
aVmurders
p1258
aVstop
p1259
ag12
(g16
S'f\xb6=fPxu@'
p1260
tp1261
Rp1262
VWed Sep 26 07:10:31 +0000 2012
p1263
VWed Sep 26 09:13:59 +0000 2012
p1264
tp1265
a((lp1266
Vpolice
p1267
aVplease
p1268
aVthanks
p1269
aVfollow
p1270
aVfollowing
p1271
aVcolleagues
p1272
aVrecent
p1273
aVofficers
p1274
aVfallen
p1275
aVmurders
p1276
ag12
(g16
S'\xce\xb04Jfxu@'
p1277
tp1278
Rp1279
VWed Sep 26 07:23:30 +0000 2012
p1280
VWed Sep 26 09:27:57 +0000 2012
p1281
tp1282
a((lp1283
Vpolice
p1284
aVplease
p1285
aVfollow
p1286
aVfollowing
p1287
aVcolleagues
p1288
aVrecent
p1289
aVofficers
p1290
aVfallen
p1291
aVmurders
p1292
aVpatrol
p1293
ag12
(g16
S'R\xf4\x13\xc7\xab8p@'
p1294
tp1295
Rp1296
VWed Sep 26 07:34:28 +0000 2012
p1297
VWed Sep 26 09:41:47 +0000 2012
p1298
tp1299
a((lp1300
Vwork
p1301
aVhaha
p1302
aVneed
p1303
aVstill
p1304
aVyeah
p1305
aVlook
p1306
aVgreat
p1307
aVnext
p1308
aVafter
p1309
aVfeel
p1310
ag12
(g16
S"\x0f9\xab \xef'6@"
p1311
tp1312
Rp1313
VWed Sep 26 07:45:43 +0000 2012
p1314
VWed Sep 26 09:52:54 +0000 2012
p1315
tp1316
a((lp1317
Vwork
p1318
aVhaha
p1319
aVneed
p1320
aVstill
p1321
aVyeah
p1322
aVlook
p1323
aVgreat
p1324
aVweek
p1325
aVlooking
p1326
aVyear
p1327
ag12
(g16
S"\xe5c\x9f\xa2'^8@"
p1328
tp1329
Rp1330
VWed Sep 26 07:58:02 +0000 2012
p1331
VWed Sep 26 10:05:27 +0000 2012
p1332
tp1333
a((lp1334
Vwork
p1335
aVhaha
p1336
aVneed
p1337
aVyeah
p1338
aVstill
p1339
aVgreat
p1340
aVthat's
p1341
aVnext
p1342
aVweek
p1343
aVyear
p1344
ag12
(g16
S'N\xa0;\xac?^8@'
p1345
tp1346
Rp1347
VWed Sep 26 08:10:56 +0000 2012
p1348
VWed Sep 26 10:18:31 +0000 2012
p1349
tp1350
a((lp1351
Vhaha
p1352
aVwork
p1353
aVneed
p1354
aVyeah
p1355
aVnight
p1356
aVhere
p1357
aVthat's
p1358
aVnext
p1359
aVweek
p1360
aVthough
p1361
ag12
(g16
S'\xb9\xf9{\xdbc\x998@'
p1362
tp1363
Rp1364
VWed Sep 26 08:23:48 +0000 2012
p1365
VWed Sep 26 10:30:07 +0000 2012
p1366
tp1367
a((lp1368
Vhaha
p1369
aVwork
p1370
aVneed
p1371
aVnight
p1372
aVyeah
p1373
aVstill
p1374
aVnext
p1375
aVthat's
p1376
aVweek
p1377
aVthough
p1378
ag12
(g16
S'\x8f\xe0\xaa\x88R\xb1:@'
p1379
tp1380
Rp1381
VWed Sep 26 08:36:08 +0000 2012
p1382
VWed Sep 26 10:42:02 +0000 2012
p1383
tp1384
a((lp1385
Vneed
p1386
aVyeah
p1387
aVonly
p1388
aVhappy
p1389
aVgreat
p1390
aVweek
p1391
aVhope
p1392
aVthough
p1393
aVdays
p1394
aVphone
p1395
ag12
(g16
S'|e,\x08\xd0\xb1>@'
p1396
tp1397
Rp1398
VWed Sep 26 08:47:27 +0000 2012
p1399
VWed Sep 26 10:53:08 +0000 2012
p1400
tp1401
a((lp1402
Vhaha
p1403
aVneed
p1404
aVyeah
p1405
aVthat's
p1406
aVstill
p1407
aVnext
p1408
aVweek
p1409
aVthough
p1410
aVyou're
p1411
aVyear
p1412
ag12
(g16
S'x\xda\xf5\xed\xb9);@'
p1413
tp1414
Rp1415
VWed Sep 26 08:59:23 +0000 2012
p1416
VWed Sep 26 11:05:12 +0000 2012
p1417
tp1418
a((lp1419
Vhaha
p1420
aVneed
p1421
aVnight
p1422
aVthat's
p1423
aVstill
p1424
aVnext
p1425
aVweek
p1426
aVthough
p1427
aVdoing
p1428
aVkeep
p1429
ag12
(g16
S'\xa9\x02\x03-|\x8d9@'
p1430
tp1431
Rp1432
VWed Sep 26 09:14:00 +0000 2012
p1433
VWed Sep 26 11:17:11 +0000 2012
p1434
tp1435
a((lp1436
Vneed
p1437
aVthanks
p1438
aVwork
p1439
aVnight
p1440
aVyeah
p1441
aVthat's
p1442
aVnext
p1443
aVweek
p1444
aVthough
p1445
aVfirst
p1446
ag12
(g16
S'\x9f\xc7\x1d\xb1/?7@'
p1447
tp1448
Rp1449
VWed Sep 26 09:27:58 +0000 2012
p1450
VWed Sep 26 11:28:38 +0000 2012
p1451
tp1452
a((lp1453
Vhaha
p1454
aVwork
p1455
aVthanks
p1456
aVstill
p1457
aVnight
p1458
aVyeah
p1459
aVthat's
p1460
aVnext
p1461
aVweek
p1462
aVthough
p1463
ag12
(g16
S'd\x8a\xfc\x12\xe4E7@'
p1464
tp1465
Rp1466
VWed Sep 26 09:41:47 +0000 2012
p1467
VWed Sep 26 11:41:07 +0000 2012
p1468
tp1469
a((lp1470
Vhaha
p1471
aVwork
p1472
aVthanks
p1473
aVyeah
p1474
aVstill
p1475
aVthough
p1476
aVeven
p1477
aVweek
p1478
aVagain
p1479
aVtill
p1480
ag12
(g16
S'(\x02~\xfd\x84\xfa5@'
p1481
tp1482
Rp1483
VWed Sep 26 09:52:55 +0000 2012
p1484
VWed Sep 26 11:52:58 +0000 2012
p1485
tp1486
a((lp1487
Vhaha
p1488
aVwork
p1489
aVyeah
p1490
aVthanks
p1491
aVstill
p1492
aVeven
p1493
aVthough
p1494
aVtheir
p1495
aVmate
p1496
aVyou're
p1497
ag12
(g16
S'D\xf9\x06\x93m\xe75@'
p1498
tp1499
Rp1500
VWed Sep 26 10:05:29 +0000 2012
p1501
VWed Sep 26 12:04:13 +0000 2012
p1502
tp1503
a((lp1504
Vhaha
p1505
aVwork
p1506
aVstill
p1507
aVyeah
p1508
aVwant
p1509
aVthem
p1510
aVthough
p1511
aVeven
p1512
aVlife
p1513
aVweek
p1514
ag12
(g16
S' \x8bk-\xdf\n5@'
p1515
tp1516
Rp1517
VWed Sep 26 10:18:33 +0000 2012
p1518
VWed Sep 26 12:14:41 +0000 2012
p1519
tp1520
a((lp1521
Vhaha
p1522
aVwork
p1523
aVneed
p1524
aVstill
p1525
aVyeah
p1526
aVwant
p1527
aVi've
p1528
aVnext
p1529
aVthem
p1530
aVmate
p1531
ag12
(g16
S'\x11@\x91G\x85g5@'
p1532
tp1533
Rp1534
VWed Sep 26 10:30:10 +0000 2012
p1535
VWed Sep 26 12:26:03 +0000 2012
p1536
tp1537
a((lp1538
Vhaha
p1539
aVwork
p1540
aVneed
p1541
aVwant
p1542
aVnight
p1543
aVstill
p1544
aVi've
p1545
aVnext
p1546
aVweek
p1547
aVtomorrow
p1548
ag12
(g16
S'\x7f"\xebA\xef\x9f4@'
p1549
tp1550
Rp1551
VWed Sep 26 10:42:02 +0000 2012
p1552
VWed Sep 26 12:36:33 +0000 2012
p1553
tp1554
a((lp1555
Vhaha
p1556
aVwork
p1557
aVneed
p1558
aVyeah
p1559
aVstill
p1560
aVnext
p1561
aVmake
p1562
aVi've
p1563
aVthem
p1564
aVmate
p1565
ag12
(g16
S'9\xec\x17i\xea\r4@'
p1566
tp1567
Rp1568
VWed Sep 26 10:53:09 +0000 2012
p1569
VWed Sep 26 12:47:17 +0000 2012
p1570
tp1571
a((lp1572
Vhaha
p1573
aVwork
p1574
aVneed
p1575
aVwant
p1576
aVyeah
p1577
aVstill
p1578
aVmake
p1579
aVnext
p1580
aVthem
p1581
aVi've
p1582
ag12
(g16
S'\xf8)\x1e\\\xc4\x0e4@'
p1583
tp1584
Rp1585
VWed Sep 26 11:05:14 +0000 2012
p1586
VWed Sep 26 12:58:52 +0000 2012
p1587
tp1588
a((lp1589
Vwork
p1590
aVwant
p1591
aVgreat
p1592
aVyeah
p1593
aVi've
p1594
aVeven
p1595
aVweek
p1596
aVdone
p1597
aVthough
p1598
aVgonna
p1599
ag12
(g16
S'\xa4\xd4\x85\x8f\x92N3@'
p1600
tp1601
Rp1602
VWed Sep 26 11:17:15 +0000 2012
p1603
VWed Sep 26 13:10:32 +0000 2012
p1604
tp1605
a((lp1606
Vhaha
p1607
aVwork
p1608
aVneed
p1609
aVwant
p1610
aVnight
p1611
aVstill
p1612
aVhere
p1613
aVthanks
p1614
aVonly
p1615
aVsomething
p1616
ag12
(g16
S'\x8c\xcf\xc6\xdf}\xff2@'
p1617
tp1618
Rp1619
VWed Sep 26 11:28:40 +0000 2012
p1620
VWed Sep 26 13:21:10 +0000 2012
p1621
tp1622
a((lp1623
Vhaha
p1624
aVneed
p1625
aVnight
p1626
aVgreat
p1627
aVstill
p1628
aVyeah
p1629
aVnext
p1630
aVgonna
p1631
aVeven
p1632
aVthough
p1633
ag12
(g16
S'\x9d\xe3\xf3\xb2\x08\x813@'
p1634
tp1635
Rp1636
VWed Sep 26 11:41:07 +0000 2012
p1637
VWed Sep 26 13:32:35 +0000 2012
p1638
tp1639
a((lp1640
Vneed
p1641
aVwork
p1642
aVwant
p1643
aVgreat
p1644
aVstill
p1645
aVyeah
p1646
aVweek
p1647
aVgonna
p1648
aVyear
p1649
aVtomorrow
p1650
ag12
(g16
S'F\xd1\xadi*a2@'
p1651
tp1652
Rp1653
VWed Sep 26 11:53:01 +0000 2012
p1654
VWed Sep 26 13:42:52 +0000 2012
p1655
tp1656
a((lp1657
Vhaha
p1658
aVwork
p1659
aVneed
p1660
aVgreat
p1661
aVstill
p1662
aVthanks
p1663
aVyeah
p1664
aVnext
p1665
aVgonna
p1666
aVyear
p1667
ag12
(g16
S'\x07\xdd\xbd\xb2\xc5\xce2@'
p1668
tp1669
Rp1670
VWed Sep 26 12:04:14 +0000 2012
p1671
VWed Sep 26 13:54:12 +0000 2012
p1672
tp1673
a((lp1674
Vwant
p1675
aVwork
p1676
aVthanks
p1677
aVgreat
p1678
aVnight
p1679
aVyeah
p1680
aVnext
p1681
aVyou're
p1682
aVweek
p1683
aVyear
p1684
ag12
(g16
S'\x16\x9f!n\xd2\xb22@'
p1685
tp1686
Rp1687
VWed Sep 26 12:14:43 +0000 2012
p1688
VWed Sep 26 14:05:07 +0000 2012
p1689
tp1690
a((lp1691
Vwant
p1692
aVwork
p1693
aVthanks
p1694
aVthem
p1695
aVyeah
p1696
aVbetter
p1697
aVyou're
p1698
aVweek
p1699
aVthough
p1700
aVyear
p1701
ag12
(g16
S'\xabV\xfa\xe6\x91R3@'
p1702
tp1703
Rp1704
VWed Sep 26 12:26:03 +0000 2012
p1705
VWed Sep 26 14:16:06 +0000 2012
p1706
tp1707
a((lp1708
Vthem
p1709
aVi've
p1710
aVstill
p1711
aVthan
p1712
aVdone
p1713
aVbetter
p1714
aVever
p1715
aVnothing
p1716
aVother
p1717
aVeach
p1718
ag12
(g16
S'\xa4p\xed\xaa\xf3\xd96@'
p1719
tp1720
Rp1721
VWed Sep 26 12:36:35 +0000 2012
p1722
VWed Sep 26 14:26:27 +0000 2012
p1723
tp1724
a((lp1725
Vhaha
p1726
aVthanks
p1727
aVi've
p1728
aVgreat
p1729
aVthem
p1730
aVyeah
p1731
aVnext
p1732
aVhope
p1733
aVthan
p1734
aVweek
p1735
ag12
(g16
S'KA\xf7-\xff\xec3@'
p1736
tp1737
Rp1738
VWed Sep 26 12:47:18 +0000 2012
p1739
VWed Sep 26 14:37:12 +0000 2012
p1740
tp1741
a((lp1742
Vthanks
p1743
aVhaha
p1744
aVwork
p1745
aVi've
p1746
aVgreat
p1747
aVyeah
p1748
aVnext
p1749
aVlooking
p1750
aVweek
p1751
aVmonth
p1752
ag12
(g16
S'\xeb\xf1$\xd3;\x8e4@'
p1753
tp1754
Rp1755
VWed Sep 26 12:58:54 +0000 2012
p1756
VWed Sep 26 14:48:21 +0000 2012
p1757
tp1758
a((lp1759
Vthanks
p1760
aVyeah
p1761
aVgetting
p1762
aVi've
p1763
aVgreat
p1764
aVnext
p1765
aVlooking
p1766
aVweek
p1767
aVmeeting
p1768
aVforward
p1769
ag12
(g16
S'\x82}\x8ef\x0f\x945@'
p1770
tp1771
Rp1772
VWed Sep 26 13:10:35 +0000 2012
p1773
VWed Sep 26 14:57:27 +0000 2012
p1774
tp1775
a((lp1776
Vonly
p1777
aVi've
p1778
aVyeah
p1779
aVmake
p1780
aVthem
p1781
aVnext
p1782
aVhope
p1783
aVthan
p1784
aVfeel
p1785
aVweek
p1786
ag12
(g16
S'\xcf\x07A\x8f\x1b\x965@'
p1787
tp1788
Rp1789
VWed Sep 26 13:21:10 +0000 2012
p1790
VWed Sep 26 15:07:12 +0000 2012
p1791
tp1792
a((lp1793
Vneed
p1794
aVthanks
p1795
aVgetting
p1796
aVonly
p1797
aVi've
p1798
aVthem
p1799
aVthan
p1800
aVhope
p1801
aVfeel
p1802
aVweek
p1803
ag12
(g16
S'\xaa\xba\xde\x16E\xe24@'
p1804
tp1805
Rp1806
VWed Sep 26 13:32:36 +0000 2012
p1807
VWed Sep 26 15:15:55 +0000 2012
p1808
tp1809
a((lp1810
Vneed
p1811
aVthanks
p1812
aVwant
p1813
aVyeah
p1814
aVi've
p1815
aVhope
p1816
aVthan
p1817
aVbetter
p1818
aVnothing
p1819
aVworse
p1820
ag12
(g16
S'D\xf8\x14\x9f\xad\x955@'
p1821
tp1822
Rp1823
VWed Sep 26 13:42:53 +0000 2012
p1824
VWed Sep 26 15:24:54 +0000 2012
p1825
tp1826
a((lp1827
Vthanks
p1828
aVwant
p1829
aVmake
p1830
aVyeah
p1831
aVplease
p1832
aVyou're
p1833
aVthough
p1834
aVbetter
p1835
aVsure
p1836
aVsoon
p1837
ag12
(g16
S'\xd6ky\x12@\xf85@'
p1838
tp1839
Rp1840
VWed Sep 26 13:54:13 +0000 2012
p1841
VWed Sep 26 15:34:14 +0000 2012
p1842
tp1843
a((lp1844
Vfollow
p1845
aVthanks
p1846
aVplease
p1847
aVtell
p1848
aVcheryl
p1849
aVchristmas
p1850
aVlouis
p1851
aVteamfollowback
p1852
aVpleasee
p1853
aVoffer
p1854
ag12
(g16
S'\xdc\xfe\xb8]\x9f\x0cD@'
p1855
tp1856
Rp1857
VWed Sep 26 14:05:08 +0000 2012
p1858
VWed Sep 26 15:42:15 +0000 2012
p1859
tp1860
a((lp1861
Vfollow
p1862
aVplease
p1863
aVthanks
p1864
aVsomeone
p1865
aVtell
p1866
aVcheryl
p1867
aVlouis
p1868
aVoffer
p1869
aVteamfollowback
p1870
aVpleasee
p1871
ag12
(g16
S'\xa7n\x15\xb0e\xcbG@'
p1872
tp1873
Rp1874
VWed Sep 26 14:16:06 +0000 2012
p1875
VWed Sep 26 15:51:12 +0000 2012
p1876
tp1877
a((lp1878
Vplease
p1879
aVfollow
p1880
aVthanks
p1881
aVsomeone
p1882
aVhwibbackstagebiz
p1883
aVtell
p1884
aVcheck
p1885
aVcheryl
p1886
aVlouis
p1887
aVpleasee
p1888
ag12
(g16
S'\xa5\x022\xd7\x02fG@'
p1889
tp1890
Rp1891
VWed Sep 26 14:26:29 +0000 2012
p1892
VWed Sep 26 16:00:07 +0000 2012
p1893
tp1894
a((lp1895
Vplease
p1896
aVfollow
p1897
aVthanks
p1898
aVyou're
p1899
aVsomeone
p1900
aVhwibbackstagebiz
p1901
aVcheck
p1902
aVcheryl
p1903
aVlouis
p1904
aVpleasee
p1905
ag12
(g16
S'JM1u\xc5\xa0G@'
p1906
tp1907
Rp1908
VWed Sep 26 14:37:15 +0000 2012
p1909
VWed Sep 26 16:09:25 +0000 2012
p1910
tp1911
a((lp1912
Vplease
p1913
aVfollow
p1914
aVthanks
p1915
aVyou're
p1916
aVhwibbackstagebiz
p1917
aVsomeone
p1918
aVcheck
p1919
aVcheryl
p1920
aVlouis
p1921
aVpleasee
p1922
ag12
(g16
S'\x82\xf2x\xa0\x00\xa8G@'
p1923
tp1924
Rp1925
VWed Sep 26 14:48:22 +0000 2012
p1926
VWed Sep 26 16:17:08 +0000 2012
p1927
tp1928
a((lp1929
Vplease
p1930
aVfollow
p1931
aVthanks
p1932
aVhwibbackstagebiz
p1933
aVsomeone
p1934
aVcheck
p1935
aVcheryl
p1936
aVmaybe
p1937
aVlouis
p1938
aVpleasee
p1939
ag12
(g16
S'`<\xd1\xfe\xf1\xb4G@'
p1940
tp1941
Rp1942
VWed Sep 26 14:57:27 +0000 2012
p1943
VWed Sep 26 16:25:27 +0000 2012
p1944
tp1945
a((lp1946
Vplease
p1947
aVfollow
p1948
aVthanks
p1949
aVtwitter
p1950
aVcheryl
p1951
aVmaybe
p1952
aVcrazy
p1953
aVheres
p1954
aVrandom3eekintofollow
p1955
aVlouis
p1956
ag12
(g16
S'\xa0\xf5`\xbc\xb7\xfcG@'
p1957
tp1958
Rp1959
VWed Sep 26 15:07:12 +0000 2012
p1960
VWed Sep 26 16:33:56 +0000 2012
p1961
tp1962
a((lp1963
Vplease
p1964
aVfollow
p1965
aVthanks
p1966
aVsomeone
p1967
aVtwitter
p1968
aVcheryl
p1969
aVmaybe
p1970
aVcrazy
p1971
aVrandom3eekintofollow
p1972
aVheres
p1973
ag12
(g16
S'\x1623\xc3\xb2|G@'
p1974
tp1975
Rp1976
VWed Sep 26 15:15:56 +0000 2012
p1977
VWed Sep 26 16:42:29 +0000 2012
p1978
tp1979
a((lp1980
Vplease
p1981
aVfollow
p1982
aVthanks
p1983
aVsomeone
p1984
aVtwitter
p1985
aVcheryl
p1986
aVmaybe
p1987
aVcrazy
p1988
aVrandom3eekintofollow
p1989
aVheres
p1990
ag12
(g16
S"\xf6%'\x87\x04|F@"
p1991
tp1992
Rp1993
VWed Sep 26 15:24:54 +0000 2012
p1994
VWed Sep 26 16:50:56 +0000 2012
p1995
tp1996
a((lp1997
Vplease
p1998
aVfollow
p1999
aVthanks
p2000
aVsomeone
p2001
aVtwitter
p2002
aVmaybe
p2003
aVcheryl
p2004
aVcrazy
p2005
aVrandom3eekintofollow
p2006
aVheres
p2007
ag12
(g16
S'\x9eE\x14\xf6\xf1\x14F@'
p2008
tp2009
Rp2010
VWed Sep 26 15:34:16 +0000 2012
p2011
VWed Sep 26 16:58:41 +0000 2012
p2012
tp2013
a((lp2014
Vhaha
p2015
aVneed
p2016
aVwork
p2017
aVwant
p2018
aVonly
p2019
aVyeah
p2020
aVthat's
p2021
aVmate
p2022
aVweek
p2023
aVthough
p2024
ag12
(g16
S'\xafR\xe5f\x98\xc68@'
p2025
tp2026
Rp2027
VWed Sep 26 15:42:16 +0000 2012
p2028
VWed Sep 26 17:05:59 +0000 2012
p2029
tp2030
a((lp2031
Vhaha
p2032
aVneed
p2033
aVwork
p2034
aVstill
p2035
aVyeah
p2036
aVthem
p2037
aVthat's
p2038
aVvery
p2039
aVweek
p2040
aVmate
p2041
ag12
(g16
S',\x8f\xb7\x8db\xfb7@'
p2042
tp2043
Rp2044
VWed Sep 26 15:51:12 +0000 2012
p2045
VWed Sep 26 17:14:06 +0000 2012
p2046
tp2047
a((lp2048
Vhaha
p2049
aVneed
p2050
aVwork
p2051
aVonly
p2052
aVstill
p2053
aVnext
p2054
aVyeah
p2055
aVthat's
p2056
aVnice
p2057
aVmate
p2058
ag12
(g16
S'xn\x0fe\xcf\xc97@'
p2059
tp2060
Rp2061
VWed Sep 26 16:00:08 +0000 2012
p2062
VWed Sep 26 17:21:48 +0000 2012
p2063
tp2064
a((lp2065
Vhaha
p2066
aVneed
p2067
aVwork
p2068
aVwant
p2069
aVstill
p2070
aVonly
p2071
aVnext
p2072
aVthat's
p2073
aVyeah
p2074
aVmate
p2075
ag12
(g16
S'L\x1c\n1\x12\x1f6@'
p2076
tp2077
Rp2078
VWed Sep 26 16:09:26 +0000 2012
p2079
VWed Sep 26 17:29:39 +0000 2012
p2080
tp2081
a((lp2082
Vhaha
p2083
aVwork
p2084
aVneed
p2085
aVwant
p2086
aVstill
p2087
aVonly
p2088
aVthem
p2089
aVthat's
p2090
aVyeah
p2091
aVweek
p2092
ag12
(g16
S'\xac\x9b\xa7l\xa5\xb94@'
p2093
tp2094
Rp2095
VWed Sep 26 16:17:09 +0000 2012
p2096
VWed Sep 26 17:36:35 +0000 2012
p2097
tp2098
a((lp2099
Vhaha
p2100
aVwork
p2101
aVneed
p2102
aVwant
p2103
aVstill
p2104
aVthem
p2105
aVi've
p2106
aVonly
p2107
aVyeah
p2108
aVweek
p2109
ag12
(g16
S'n^8\xfe.\\5@'
p2110
tp2111
Rp2112
VWed Sep 26 16:25:28 +0000 2012
p2113
VWed Sep 26 17:43:48 +0000 2012
p2114
tp2115
a((lp2116
Vhaha
p2117
aVneed
p2118
aVwork
p2119
aVwant
p2120
aVstill
p2121
aVonly
p2122
aVi've
p2123
aVweek
p2124
aVlong
p2125
aVinto
p2126
ag12
(g16
S'\x0e\xcf\x13s\xaa\xc04@'
p2127
tp2128
Rp2129
VWed Sep 26 16:33:58 +0000 2012
p2130
VWed Sep 26 17:50:28 +0000 2012
p2131
tp2132
a((lp2133
Vhaha
p2134
aVneed
p2135
aVwork
p2136
aVwant
p2137
aVstill
p2138
aVonly
p2139
aVi've
p2140
aVyeah
p2141
aVlong
p2142
aVsoon
p2143
ag12
(g16
S'\x80\x84\xb7:Aw3@'
p2144
tp2145
Rp2146
VWed Sep 26 16:42:30 +0000 2012
p2147
VWed Sep 26 17:57:12 +0000 2012
p2148
tp2149
a((lp2150
Vhaha
p2151
aVneed
p2152
aVwant
p2153
aVwork
p2154
aVthem
p2155
aVstill
p2156
aVonly
p2157
aVi've
p2158
aVshould
p2159
aVdone
p2160
ag12
(g16
S'\xc8\xe0\xb0S\xc3\xed2@'
p2161
tp2162
Rp2163
VWed Sep 26 16:50:57 +0000 2012
p2164
VWed Sep 26 18:04:01 +0000 2012
p2165
tp2166
a((lp2167
Vwant
p2168
aVhaha
p2169
aVneed
p2170
aVwork
p2171
aVthem
p2172
aVstill
p2173
aVi've
p2174
aVshould
p2175
aVtomorrow
p2176
aVgreat
p2177
ag12
(g16
S'\x0e\x9b\x92a_v3@'
p2178
tp2179
Rp2180
VWed Sep 26 16:58:42 +0000 2012
p2181
VWed Sep 26 18:10:23 +0000 2012
p2182
tp2183
a((lp2184
Vhaha
p2185
aVneed
p2186
aVwork
p2187
aVthem
p2188
aVstill
p2189
aVtomorrow
p2190
aVshould
p2191
aVlooking
p2192
aVgreat
p2193
aVafter
p2194
ag12
(g16
S'\xafV\xf0j \x023@'
p2195
tp2196
Rp2197
VWed Sep 26 17:05:59 +0000 2012
p2198
VWed Sep 26 18:16:57 +0000 2012
p2199
tp2200
a((lp2201
Vfollow
p2202
aVplease
p2203
aVfirst
p2204
aVsince
p2205
aVloved
p2206
aVvictorious
p2207
aVsprinkles
p2208
aVsang
p2209
aVariana
p2210
aVxoxox
p2211
ag12
(g16
S'\xa7\xbd\xf9\xb4\xb0pX@'
p2212
tp2213
Rp2214
VWed Sep 26 17:14:06 +0000 2012
p2215
VWed Sep 26 18:23:16 +0000 2012
p2216
tp2217
a((lp2218
Vfollow
p2219
aVplease
p2220
aVfirst
p2221
aVsince
p2222
aVloved
p2223
aVsprinkles
p2224
aVariana
p2225
aVvictorious
p2226
aVsang
p2227
aVxoxox
p2228
ag12
(g16
S'\\\xb8\xc2\x10VsX@'
p2229
tp2230
Rp2231
VWed Sep 26 17:21:50 +0000 2012
p2232
VWed Sep 26 18:29:49 +0000 2012
p2233
tp2234
a((lp2235
Vfollow
p2236
aVplease
p2237
aVfirst
p2238
aVsince
p2239
aVloved
p2240
aVsprinkles
p2241
aVariana
p2242
aVvictorious
p2243
aVsang
p2244
aVxoxox
p2245
ag12
(g16
S'\xc9z\xc2\x10VsX@'
p2246
tp2247
Rp2248
VWed Sep 26 17:24:02 +0000 2012
p2249
VWed Sep 26 18:31:43 +0000 2012
p2250
tp2251
a.