(lp0
((lp1
Vhaha
p2
aVneed
p3
aVwant
p4
aVwork
p5
aVyeah
p6
aVthem
p7
aVstill
p8
aVmake
p9
aVeven
p10
aVthough
p11
acnumpy.core.multiarray
scalar
p12
(cnumpy
dtype
p13
(S'f8'
p14
I0
I1
tp15
Rp16
(I3
S'<'
p17
NNNI-1
I-1
I0
tp18
bS'\x0fB\x1a\xf1J.l@'
p19
tp20
Rp21
VTue Sep 25 15:49:40 +0000 2012
p22
VWed Sep 26 18:31:43 +0000 2012
p23
tp24
a.