(lp0
((lp1
Vneed
p2
aVhaha
p3
aVwant
p4
aVthem
p5
aVyeah
p6
aVstill
p7
aVhere
p8
aVi've
p9
aVafter
p10
aVthough
p11
acnumpy.core.multiarray
scalar
p12
(cnumpy
dtype
p13
(S'f8'
p14
I0
I1
tp15
Rp16
(I3
S'<'
p17
NNNI-1
I-1
I0
tp18
bS'r\x7f\xbc\x0b\xbe\xafO@'
p19
tp20
Rp21
tp22
a((lp23
Vhaha
p24
aVneed
p25
aVwant
p26
aVthem
p27
aVyeah
p28
aVstill
p29
aVnever
p30
aVi've
p31
aVhere
p32
aVthough
p33
ag12
(g16
S'\x86\x80\xbaIcqP@'
p34
tp35
Rp36
tp37
a((lp38
Vhaha
p39
aVwant
p40
aVneed
p41
aVthem
p42
aVyeah
p43
aVstill
p44
aVnever
p45
aVeven
p46
aVi've
p47
aVthough
p48
ag12
(g16
S'\xb7-\r\xed\xea\x12R@'
p49
tp50
Rp51
tp52
a((lp53
Vhaha
p54
aVneed
p55
aVwant
p56
aVthem
p57
aVyeah
p58
aVstill
p59
aVnever
p60
aVeven
p61
aVi've
p62
aVthough
p63
ag12
(g16
S'\xa8\xa9h+\x85\x9aQ@'
p64
tp65
Rp66
tp67
a((lp68
Vhaha
p69
aVneed
p70
aVwant
p71
aVstill
p72
aVyeah
p73
aVthem
p74
aVtomorrow
p75
aVnever
p76
aVeven
p77
aVthough
p78
ag12
(g16
S'\x80\xf0eH)\x9eP@'
p79
tp80
Rp81
tp82
a((lp83
Vnight
p84
aVwork
p85
aVneed
p86
aVhaha
p87
aVstill
p88
aVwant
p89
aVyeah
p90
aVthem
p91
aVthat's
p92
aVthough
p93
ag12
(g16
S'\xc8\xed\xbc0\xb6sQ@'
p94
tp95
Rp96
tp97
a((lp98
Vwork
p99
aVhaha
p100
aVneed
p101
aVnight
p102
aVstill
p103
aVyeah
p104
aVthem
p105
aVnext
p106
aVthat's
p107
aVthough
p108
ag12
(g16
S'\\\xa7\xabD-\xe5Q@'
p109
tp110
Rp111
tp112
a((lp113
Vhaha
p114
aVwork
p115
aVneed
p116
aVnight
p117
aVstill
p118
aVyeah
p119
aVthem
p120
aVnext
p121
aVweek
p122
aVthough
p123
ag12
(g16
S'(T\xe3\x15\x87\x86S@'
p124
tp125
Rp126
tp127
a((lp128
Vhaha
p129
aVneed
p130
aVyeah
p131
aVstill
p132
aVgreat
p133
aVthat's
p134
aVnext
p135
aVi've
p136
aVthough
p137
aVweek
p138
ag12
(g16
S'f!\xb2\xd7\xfe\xd0R@'
p139
tp140
Rp141
tp142
a((lp143
Vhaha
p144
aVneed
p145
aVwork
p146
aVwant
p147
aVyeah
p148
aVstill
p149
aVthem
p150
aVthat's
p151
aVthough
p152
aVweek
p153
ag12
(g16
S"z'\x98G6\xeaQ@"
p154
tp155
Rp156
tp157
a((lp158
Vhaha
p159
aVneed
p160
aVwant
p161
aVwork
p162
aVthem
p163
aVyeah
p164
aVonly
p165
aVstill
p166
aVmake
p167
aVeven
p168
ag12
(g16
S'[\x80\xde\xc2~\xaaO@'
p169
tp170
Rp171
tp172
a((lp173
Vhaha
p174
aVneed
p175
aVwant
p176
aVwork
p177
aVthem
p178
aVyeah
p179
aVstill
p180
aVonly
p181
aVmake
p182
aVthough
p183
ag12
(g16
S'L\x1e\xd3\xe7\x86\xa4O@'
p184
tp185
Rp186
tp187
a.