(lp0
((lp1
Vneed
p2
aVhaha
p3
aVwant
p4
aVthem
p5
aVyeah
p6
aVstill
p7
aVhere
p8
aVi've
p9
aVafter
p10
aVthough
p11
acnumpy.core.multiarray
scalar
p12
(cnumpy
dtype
p13
(S'f8'
p14
I0
I1
tp15
Rp16
(I3
S'<'
p17
NNNI-1
I-1
I0
tp18
bS'r\x7f\xbc\x0b\xbe\xafO@'
p19
tp20
Rp21
VTue Sep 25 15:49:40 +0000 2012
p22
VTue Sep 25 20:40:14 +0000 2012
p23
tp24
a((lp25
Vhaha
p26
aVneed
p27
aVwant
p28
aVthem
p29
aVyeah
p30
aVstill
p31
aVnever
p32
aVi've
p33
aVhere
p34
aVthough
p35
ag12
(g16
S'\x86\x80\xbaIcqP@'
p36
tp37
Rp38
VTue Sep 25 17:13:49 +0000 2012
p39
VTue Sep 25 21:40:48 +0000 2012
p40
tp41
a((lp42
Vhaha
p43
aVwant
p44
aVneed
p45
aVthem
p46
aVyeah
p47
aVstill
p48
aVnever
p49
aVeven
p50
aVi've
p51
aVthough
p52
ag12
(g16
S'\xb7-\r\xed\xea\x12R@'
p53
tp54
Rp55
VTue Sep 25 18:27:56 +0000 2012
p56
VTue Sep 25 23:06:32 +0000 2012
p57
tp58
a((lp59
Vhaha
p60
aVneed
p61
aVwant
p62
aVthem
p63
aVyeah
p64
aVstill
p65
aVnever
p66
aVeven
p67
aVi've
p68
aVthough
p69
ag12
(g16
S'\xa8\xa9h+\x85\x9aQ@'
p70
tp71
Rp72
VTue Sep 25 19:36:08 +0000 2012
p73
VWed Sep 26 06:20:13 +0000 2012
p74
tp75
a((lp76
Vhaha
p77
aVneed
p78
aVwant
p79
aVstill
p80
aVyeah
p81
aVthem
p82
aVtomorrow
p83
aVnever
p84
aVeven
p85
aVthough
p86
ag12
(g16
S'\x80\xf0eH)\x9eP@'
p87
tp88
Rp89
VTue Sep 25 20:40:15 +0000 2012
p90
VWed Sep 26 08:36:07 +0000 2012
p91
tp92
a((lp93
Vnight
p94
aVwork
p95
aVneed
p96
aVhaha
p97
aVstill
p98
aVwant
p99
aVyeah
p100
aVthem
p101
aVthat's
p102
aVthough
p103
ag12
(g16
S'\xc8\xed\xbc0\xb6sQ@'
p104
tp105
Rp106
VTue Sep 25 21:40:48 +0000 2012
p107
VWed Sep 26 10:42:02 +0000 2012
p108
tp109
a((lp110
Vwork
p111
aVhaha
p112
aVneed
p113
aVnight
p114
aVstill
p115
aVyeah
p116
aVthem
p117
aVnext
p118
aVthat's
p119
aVthough
p120
ag12
(g16
S'\\\xa7\xabD-\xe5Q@'
p121
tp122
Rp123
VTue Sep 25 23:06:32 +0000 2012
p124
VWed Sep 26 12:36:33 +0000 2012
p125
tp126
a((lp127
Vhaha
p128
aVwork
p129
aVneed
p130
aVnight
p131
aVstill
p132
aVyeah
p133
aVthem
p134
aVnext
p135
aVweek
p136
aVthough
p137
ag12
(g16
S'(T\xe3\x15\x87\x86S@'
p138
tp139
Rp140
VWed Sep 26 06:20:17 +0000 2012
p141
VWed Sep 26 14:26:27 +0000 2012
p142
tp143
a((lp144
Vhaha
p145
aVneed
p146
aVyeah
p147
aVstill
p148
aVgreat
p149
aVthat's
p150
aVnext
p151
aVi've
p152
aVthough
p153
aVweek
p154
ag12
(g16
S'f!\xb2\xd7\xfe\xd0R@'
p155
tp156
Rp157
VWed Sep 26 08:36:08 +0000 2012
p158
VWed Sep 26 16:00:07 +0000 2012
p159
tp160
a((lp161
Vhaha
p162
aVneed
p163
aVwork
p164
aVwant
p165
aVyeah
p166
aVstill
p167
aVthem
p168
aVthat's
p169
aVthough
p170
aVweek
p171
ag12
(g16
S"z'\x98G6\xeaQ@"
p172
tp173
Rp174
VWed Sep 26 10:42:02 +0000 2012
p175
VWed Sep 26 17:21:48 +0000 2012
p176
tp177
a((lp178
Vhaha
p179
aVneed
p180
aVwant
p181
aVwork
p182
aVthem
p183
aVyeah
p184
aVonly
p185
aVstill
p186
aVmake
p187
aVeven
p188
ag12
(g16
S'[\x80\xde\xc2~\xaaO@'
p189
tp190
Rp191
VWed Sep 26 12:36:35 +0000 2012
p192
VWed Sep 26 18:29:49 +0000 2012
p193
tp194
a((lp195
Vhaha
p196
aVneed
p197
aVwant
p198
aVwork
p199
aVthem
p200
aVyeah
p201
aVstill
p202
aVonly
p203
aVmake
p204
aVthough
p205
ag12
(g16
S'L\x1e\xd3\xe7\x86\xa4O@'
p206
tp207
Rp208
VWed Sep 26 12:39:46 +0000 2012
p209
VWed Sep 26 18:31:43 +0000 2012
p210
tp211
a.