(lp0
((lp1
Vneed
p2
aVwant
p3
aVthem
p4
aVthanks
p5
aVmake
p6
aVhope
p7
aVfollow
p8
aVhappy
p9
aVplease
p10
aVbirthday
p11
acnumpy.core.multiarray
scalar
p12
(cnumpy
dtype
p13
(S'f8'
p14
I0
I1
tp15
Rp16
(I3
S'<'
p17
NNNI-1
I-1
I0
tp18
bS'h_\xb6\xaf`,W@'
p19
tp20
Rp21
VTue Sep 25 15:49:40 +0000 2012
p22
VTue Sep 25 19:36:08 +0000 2012
p23
tp24
a((lp25
Vwant
p26
aVwork
p27
aVthem
p28
aVyeah
p29
aVstill
p30
aVhere
p31
aVi've
p32
aVafter
p33
aVthough
p34
aVseen
p35
ag12
(g16
S'"\x1b\x8b@E\x99H@'
p36
tp37
Rp38
VTue Sep 25 16:41:30 +0000 2012
p39
VTue Sep 25 20:15:18 +0000 2012
p40
tp41
a((lp42
Vneed
p43
aVwant
p44
aVthem
p45
aVyeah
p46
aVstill
p47
aVi've
p48
aVeven
p49
aVright
p50
aVafter
p51
aVthough
p52
ag12
(g16
S'$\xe0L\xff\x95\xb6H@'
p53
tp54
Rp55
VTue Sep 25 17:29:40 +0000 2012
p56
VTue Sep 25 20:52:26 +0000 2012
p57
tp58
a((lp59
Vhaha
p60
aVwant
p61
aVneed
p62
aVonly
p63
aVthem
p64
aVyeah
p65
aVwork
p66
aVstill
p67
aVeven
p68
aVthough
p69
ag12
(g16
S'~\xa3\x95\r\x13\xc4J@'
p70
tp71
Rp72
VTue Sep 25 18:14:36 +0000 2012
p73
VTue Sep 25 21:27:16 +0000 2012
p74
tp75
a((lp76
Vhaha
p77
aVwant
p78
aVneed
p79
aVonly
p80
aVthem
p81
aVyeah
p82
aVstill
p83
aVnever
p84
aVthough
p85
aVi've
p86
ag12
(g16
S':\xe5\x01\x85V\x95K@'
p87
tp88
Rp89
VTue Sep 25 18:55:42 +0000 2012
p90
VTue Sep 25 22:08:13 +0000 2012
p91
tp92
a((lp93
Vhaha
p94
aVwant
p95
aVthem
p96
aVyeah
p97
aVstill
p98
aVnever
p99
aVeven
p100
aVthough
p101
aVi've
p102
aVsomeone
p103
ag12
(g16
S'\x82\x8b\\6\xca\x99L@'
p104
tp105
Rp106
VTue Sep 25 19:36:08 +0000 2012
p107
VTue Sep 25 23:06:32 +0000 2012
p108
tp109
a((lp110
Vhaha
p111
aVneed
p112
aVwant
p113
aVthem
p114
aVyeah
p115
aVnever
p116
aVstill
p117
aVeven
p118
aVi've
p119
aVthough
p120
ag12
(g16
S'\x0c\xe2\xa9\xc5\x9d|K@'
p121
tp122
Rp123
VTue Sep 25 20:15:18 +0000 2012
p124
VWed Sep 26 01:42:34 +0000 2012
p125
tp126
a((lp127
Vhaha
p128
aVwant
p129
aVyeah
p130
aVthem
p131
aVstill
p132
aVnever
p133
aVeven
p134
aVthough
p135
aVever
p136
aVbefore
p137
ag12
(g16
S'\xfc\xb4\xc5p)\xc0I@'
p138
tp139
Rp140
VTue Sep 25 20:52:28 +0000 2012
p141
VWed Sep 26 06:55:57 +0000 2012
p142
tp143
a((lp144
Vfollow
p145
aVplease
p146
aVpolice
p147
aVfollowing
p148
aVrecent
p149
aVfallen
p150
aVofficers
p151
aVmurders
p152
aVcolleagues
p153
aVbrazil
p154
ag12
(g16
S'\xe6\xb2R2D\x85u@'
p155
tp156
Rp157
VTue Sep 25 21:27:16 +0000 2012
p158
VWed Sep 26 08:10:53 +0000 2012
p159
tp160
a((lp161
Vfollow
p162
aVplease
p163
aVthanks
p164
aVpolice
p165
aVfollowing
p166
aVrecent
p167
aVfallen
p168
aVofficers
p169
aVcolleagues
p170
aVmurders
p171
ag12
(g16
S'\\2\xaf\x18\n\x8du@'
p172
tp173
Rp174
VTue Sep 25 22:08:14 +0000 2012
p175
VWed Sep 26 09:27:57 +0000 2012
p176
tp177
a((lp178
Vthanks
p179
aVplease
p180
aVfollow
p181
aVpolice
p182
aVfollowing
p183
aVfallen
p184
aVcolleagues
p185
aVofficers
p186
aVrecent
p187
aVmurders
p188
ag12
(g16
S'6\xbf\x9c<\x1f\x81u@'
p189
tp190
Rp191
VTue Sep 25 23:06:32 +0000 2012
p192
VWed Sep 26 10:42:02 +0000 2012
p193
tp194
a((lp195
Vthanks
p196
aVplease
p197
aVfollow
p198
aVpolice
p199
aVfollowing
p200
aVfallen
p201
aVcolleagues
p202
aVofficers
p203
aVrecent
p204
aVmurders
p205
ag12
(g16
S'\xe3,[\x98G\x84u@'
p206
tp207
Rp208
VWed Sep 26 01:42:36 +0000 2012
p209
VWed Sep 26 11:52:58 +0000 2012
p210
tp211
a((lp212
Vthanks
p213
aVplease
p214
aVfollow
p215
aVpolice
p216
aVfollowing
p217
aVcolleagues
p218
aVofficers
p219
aVfallen
p220
aVrecent
p221
aVmurders
p222
ag12
(g16
S'\x0f\xf1b\x85\xf7\x83u@'
p223
tp224
Rp225
VWed Sep 26 06:55:57 +0000 2012
p226
VWed Sep 26 12:58:52 +0000 2012
p227
tp228
a((lp229
Vhaha
p230
aVwork
p231
aVneed
p232
aVstill
p233
aVyeah
p234
aVgreat
p235
aVthem
p236
aVnext
p237
aVweek
p238
aVthough
p239
ag12
(g16
S'\xb8\xd3\xa87f\xc3L@'
p240
tp241
Rp242
VWed Sep 26 08:10:56 +0000 2012
p243
VWed Sep 26 14:05:07 +0000 2012
p244
tp245
a((lp246
Vhaha
p247
aVneed
p248
aVwork
p249
aVthanks
p250
aVyeah
p251
aVstill
p252
aVnext
p253
aVweek
p254
aVthough
p255
aVyear
p256
ag12
(g16
S'\xabm\xc9\x90\x05lK@'
p257
tp258
Rp259
VWed Sep 26 09:27:58 +0000 2012
p260
VWed Sep 26 15:07:12 +0000 2012
p261
tp262
a((lp263
Vhaha
p264
aVneed
p265
aVthanks
p266
aVwork
p267
aVwant
p268
aVyeah
p269
aVstill
p270
aVthem
p271
aVeven
p272
aVthough
p273
ag12
(g16
S'\x02\x11T\xf1zAH@'
p274
tp275
Rp276
VWed Sep 26 10:42:02 +0000 2012
p277
VWed Sep 26 16:00:07 +0000 2012
p278
tp279
a((lp280
Vhaha
p281
aVneed
p282
aVwork
p283
aVyeah
p284
aVonly
p285
aVthem
p286
aVstill
p287
aVnext
p288
aVthat's
p289
aVeven
p290
ag12
(g16
S'|O\xeb\xa1\xe5\xcbJ@'
p291
tp292
Rp293
VWed Sep 26 11:53:01 +0000 2012
p294
VWed Sep 26 16:50:56 +0000 2012
p295
tp296
a((lp297
Vhaha
p298
aVneed
p299
aVwork
p300
aVstill
p301
aVonly
p302
aVthem
p303
aVyeah
p304
aVthat's
p305
aVnext
p306
aVthough
p307
ag12
(g16
S'@\xe5\xb0\xbal\x05K@'
p308
tp309
Rp310
VWed Sep 26 12:58:54 +0000 2012
p311
VWed Sep 26 17:36:35 +0000 2012
p312
tp313
a((lp314
Vhaha
p315
aVneed
p316
aVwork
p317
aVwant
p318
aVyeah
p319
aVthem
p320
aVstill
p321
aVthat's
p322
aVeven
p323
aVweek
p324
ag12
(g16
S'\xa8\x8bs:r\x81I@'
p325
tp326
Rp327
VWed Sep 26 14:05:08 +0000 2012
p328
VWed Sep 26 18:16:57 +0000 2012
p329
tp330
a((lp331
Vhaha
p332
aVneed
p333
aVwant
p334
aVwork
p335
aVthem
p336
aVyeah
p337
aVstill
p338
aVthough
p339
aVweek
p340
aVsure
p341
ag12
(g16
S'\xbe\x81,\xbd\x14fI@'
p342
tp343
Rp344
VWed Sep 26 14:29:14 +0000 2012
p345
VWed Sep 26 18:31:43 +0000 2012
p346
tp347
a.