(lp0
((lp1
Vbest
p2
aVgetting
p3
aVplease
p4
aVcould
p5
aVever
p6
aVfriends
p7
aVretweet
p8
aVsarah
p9
aVmarried
p10
aVmatt
p11
acnumpy.core.multiarray
scalar
p12
(cnumpy
dtype
p13
(S'f8'
p14
I0
I1
tp15
Rp16
(I3
S'<'
p17
NNNI-1
I-1
I0
tp18
bS'J\x9b+\xed\x02\xcaj@'
p19
tp20
Rp21
VFri Sep 21 23:15:03 +0000 2012
p22
VSat Sep 22 10:25:03 +0000 2012
p23
tp24
a((lp25
Vbest
p26
aVgetting
p27
aVcould
p28
aVplease
p29
aVever
p30
aVfriends
p31
aVretweet
p32
aVsarah
p33
aVmatt
p34
aVmarried
p35
ag12
(g16
S'4Qx\xea\x03\xbdj@'
p36
tp37
Rp38
VSat Sep 22 01:02:58 +0000 2012
p39
VSat Sep 22 11:21:00 +0000 2012
p40
tp41
a((lp42
Vbest
p43
aVgetting
p44
aVplease
p45
aVcould
p46
aVever
p47
aVfriends
p48
aVretweet
p49
aVmatt
p50
aVmarried
p51
aVsarah
p52
ag12
(g16
S'I\x85\xb8\xda\xf3\xb1j@'
p53
tp54
Rp55
VSat Sep 22 06:31:49 +0000 2012
p56
VSat Sep 22 12:16:04 +0000 2012
p57
tp58
a((lp59
Vhaha
p60
aVnight
p61
aVwork
p62
aVhere
p63
aVstill
p64
aVonly
p65
aVyeah
p66
aVthem
p67
aVthat's
p68
aVthough
p69
ag12
(g16
S'r\xd6\xea\xf7\x80\x0eH@'
p70
tp71
Rp72
VSat Sep 22 08:23:29 +0000 2012
p73
VSat Sep 22 13:10:15 +0000 2012
p74
tp75
a((lp76
Vhaha
p77
aVneed
p78
aVnight
p79
aVstill
p80
aVyeah
p81
aVi've
p82
aVlook
p83
aVgonna
p84
aVthough
p85
aVwere
p86
ag12
(g16
S'v\xc5C?\x12\xbbG@'
p87
tp88
Rp89
VSat Sep 22 09:27:58 +0000 2012
p90
VSat Sep 22 14:04:25 +0000 2012
p91
tp92
a((lp93
Vhaha
p94
aVneed
p95
aVonly
p96
aVstill
p97
aVyeah
p98
aVi've
p99
aVthat's
p100
aVgonna
p101
aVweek
p102
aVyear
p103
ag12
(g16
S'\x14\xea\xf4\xac\xf1\x0fI@'
p104
tp105
Rp106
VSat Sep 22 10:25:03 +0000 2012
p107
VSat Sep 22 15:00:50 +0000 2012
p108
tp109
a((lp110
Vhaha
p111
aVhere
p112
aVnight
p113
aVwork
p114
aVstill
p115
aVyeah
p116
aVonly
p117
aVthat's
p118
aVplease
p119
aVwere
p120
ag12
(g16
S'R\xad-\xe6\xd3\x19E@'
p121
tp122
Rp123
VSat Sep 22 11:21:01 +0000 2012
p124
VSat Sep 22 15:53:39 +0000 2012
p125
tp126
a((lp127
Vhaha
p128
aVneed
p129
aVnight
p130
aVstill
p131
aVyeah
p132
aVi've
p133
aVdone
p134
aVthat's
p135
aVthough
p136
aVweek
p137
ag12
(g16
S'\xaa\xb9a!\xcf\x8bF@'
p138
tp139
Rp140
VSat Sep 22 12:16:04 +0000 2012
p141
VSat Sep 22 16:47:41 +0000 2012
p142
tp143
a((lp144
Vneed
p145
aVhaha
p146
aVwant
p147
aVstill
p148
aVyeah
p149
aVnext
p150
aVi've
p151
aVbetter
p152
aVthough
p153
aVafter
p154
ag12
(g16
S'5#\xe05\xa5\xd1F@'
p155
tp156
Rp157
VSat Sep 22 13:10:16 +0000 2012
p158
VSat Sep 22 17:43:06 +0000 2012
p159
tp160
a((lp161
Vneed
p162
aVstill
p163
aVonly
p164
aVyeah
p165
aVthem
p166
aVeven
p167
aVi've
p168
aVbetter
p169
aVthough
p170
aVthan
p171
ag12
(g16
S'\x10\xd3r\xe0\x0c\xb4G@'
p172
tp173
Rp174
VSat Sep 22 14:04:28 +0000 2012
p175
VSat Sep 22 18:36:05 +0000 2012
p176
tp177
a((lp178
Vplease
p179
aVworld
p180
aVsupport
p181
aVtowards
p182
aVhomeless
p183
aVsquad
p184
aVflight
p185
aVmorocco
p186
aVdonations
p187
aVcosts
p188
ag12
(g16
S'\x86\x16\x1b\xe6;\x93v@'
p189
tp190
Rp191
VSat Sep 22 15:00:53 +0000 2012
p192
VSat Sep 22 19:24:27 +0000 2012
p193
tp194
a((lp195
Vplease
p196
aVworld
p197
aVsupport
p198
aVtowards
p199
aVflight
p200
aVhomeless
p201
aVsquad
p202
aVmorocco
p203
aVdonations
p204
aVcosts
p205
ag12
(g16
S'@\xe0\xbd\xccp\x86v@'
p206
tp207
Rp208
VSat Sep 22 15:53:40 +0000 2012
p209
VSat Sep 22 20:11:48 +0000 2012
p210
tp211
a((lp212
Vplease
p213
aVworld
p214
aVhomeless
p215
aVsupport
p216
aVflight
p217
aVtowards
p218
aVsquad
p219
aVcosts
p220
aVmorocco
p221
aVdonations
p222
ag12
(g16
S'\xb0\xba\xa4\xc5y\x86v@'
p223
tp224
Rp225
VSat Sep 22 16:47:43 +0000 2012
p226
VSat Sep 22 20:56:13 +0000 2012
p227
tp228
a((lp229
Vxfactor
p230
aVnight
p231
aVlife
p232
aVnext
p233
aVwatching
p234
aVbetter
p235
aVeven
p236
aVthan
p237
aVhaving
p238
aVsaturday
p239
ag12
(g16
S'\x16\xdaC\x8e=\xfdN@'
p240
tp241
Rp242
VSat Sep 22 17:43:07 +0000 2012
p243
VSat Sep 22 21:43:28 +0000 2012
p244
tp245
a((lp246
Vplease
p247
aVworld
p248
aVhomeless
p249
aVsupport
p250
aVflight
p251
aVtowards
p252
aVsquad
p253
aVcosts
p254
aVmorocco
p255
aVdonations
p256
ag12
(g16
S'\x18\xba\xa4\xc5y\x86v@'
p257
tp258
Rp259
VSat Sep 22 18:36:06 +0000 2012
p260
VSat Sep 22 22:37:48 +0000 2012
p261
tp262
a((lp263
Vnight
p264
aVxfactor
p265
aVhaha
p266
aVlife
p267
aVwatching
p268
aVeven
p269
aVbetter
p270
aVthan
p271
aVhaving
p272
aVsaturday
p273
ag12
(g16
S'\xfa\xb7\x9c\x99\xd6\x97P@'
p274
tp275
Rp276
VSat Sep 22 19:24:28 +0000 2012
p277
VSat Sep 22 23:48:17 +0000 2012
p278
tp279
a((lp280
Vnight
p281
aVneed
p282
aVgreat
p283
aVlife
p284
aVbetter
p285
aVfeel
p286
aVthan
p287
aVsaturday
p288
aVultimate
p289
aVtips
p290
ag12
(g16
S'F`\x19\x05\x93vP@'
p291
tp292
Rp293
VSat Sep 22 20:11:49 +0000 2012
p294
VSun Sep 23 02:40:35 +0000 2012
p295
tp296
a((lp297
Vnight
p298
aVneed
p299
aVlife
p300
aVfeel
p301
aVeven
p302
aVbetter
p303
aVthan
p304
aVsaturday
p305
aVtips
p306
aVultimate
p307
ag12
(g16
S'b\xe6\x98m\xe4aP@'
p308
tp309
Rp310
VSat Sep 22 20:56:16 +0000 2012
p311
VSun Sep 23 07:51:49 +0000 2012
p312
tp313
a((lp314
Vnight
p315
aVneed
p316
aVstill
p317
aVwork
p318
aVgreat
p319
aVbest
p320
aVafter
p321
aVagain
p322
aVlate
p323
aVsaturday
p324
ag12
(g16
S'.\xd3@\xabx\x9fL@'
p325
tp326
Rp327
VSat Sep 22 21:43:28 +0000 2012
p328
VSun Sep 23 09:21:25 +0000 2012
p329
tp330
a((lp331
Vnight
p332
aVhaha
p333
aVstill
p334
aVwork
p335
aVgreat
p336
aVthanks
p337
aVover
p338
aVafter
p339
aVearly
p340
aVlate
p341
ag12
(g16
S'Rf?L\xe1\x9aK@'
p342
tp343
Rp344
VSat Sep 22 22:37:48 +0000 2012
p345
VSun Sep 23 10:21:04 +0000 2012
p346
tp347
a((lp348
Vnight
p349
aVneed
p350
aVstill
p351
aVsunday
p352
aVwork
p353
aVthanks
p354
aVgreat
p355
aVgetting
p356
aVhope
p357
aVafter
p358
ag12
(g16
S'$\x88?\xde5\x00M@'
p359
tp360
Rp361
VSat Sep 22 23:48:21 +0000 2012
p362
VSun Sep 23 11:17:26 +0000 2012
p363
tp364
a((lp365
Vnight
p366
aVsunday
p367
aVhaha
p368
aVstill
p369
aVwork
p370
aVthanks
p371
aVgreat
p372
aVover
p373
aVafter
p374
aVearly
p375
ag12
(g16
S'\xf0\x9a\xca\xff\xab$L@'
p376
tp377
Rp378
VSun Sep 23 02:40:41 +0000 2012
p379
VSun Sep 23 12:09:29 +0000 2012
p380
tp381
a((lp382
Vnight
p383
aVsunday
p384
aVgreat
p385
aVthanks
p386
aVhope
p387
aVbetter
p388
aVhappy
p389
aVbirthday
p390
aVsoon
p391
aVlovely
p392
ag12
(g16
S'|\xe2\xcc\xfdQUS@'
p393
tp394
Rp395
VSun Sep 23 07:51:50 +0000 2012
p396
VSun Sep 23 12:54:30 +0000 2012
p397
tp398
a((lp399
Vrain
p400
aVneed
p401
aVnight
p402
aVhaha
p403
aVsunday
p404
aVstill
p405
aVgreat
p406
aVdown
p407
aVthanks
p408
aVafter
p409
ag12
(g16
S'\xe0\x9c\xba\nr\x8bI@'
p410
tp411
Rp412
VSun Sep 23 09:21:29 +0000 2012
p413
VSun Sep 23 13:35:06 +0000 2012
p414
tp415
a((lp416
Vliverpool
p417
aVunited
p418
aVdown
p419
aVgame
p420
aVwatching
p421
aVfootball
p422
aVplaying
p423
aVmufc
p424
aVfans
p425
aVmanchester
p426
ag12
(g16
S'%\xa7\xaexR\xa4Q@'
p427
tp428
Rp429
VSun Sep 23 10:21:06 +0000 2012
p430
VSun Sep 23 14:15:52 +0000 2012
p431
tp432
a((lp433
Vliverpool
p434
aVstill
p435
aVunited
p436
aVgame
p437
aVdown
p438
aVwatching
p439
aVfootball
p440
aVmufc
p441
aVfans
p442
aVmanchester
p443
ag12
(g16
S'd\xb4o\xda\xb6\xeaS@'
p444
tp445
Rp446
VSun Sep 23 11:17:27 +0000 2012
p447
VSun Sep 23 15:03:37 +0000 2012
p448
tp449
a((lp450
Vliverpool
p451
aVstill
p452
aVunited
p453
aVgame
p454
aVarsenal
p455
aVdown
p456
aVwatching
p457
aVfootball
p458
aVfans
p459
aVmanchester
p460
ag12
(g16
S'\xb9\xbb9\xda\xb4\xfbR@'
p461
tp462
Rp463
VSun Sep 23 12:09:29 +0000 2012
p464
VSun Sep 23 15:50:33 +0000 2012
p465
tp466
a((lp467
Vhaha
p468
aVnight
p469
aVplease
p470
aVthanks
p471
aVover
p472
aVfollow
p473
aVhelp
p474
aVhuge
p475
aVfollowers
p476
aVexposure
p477
ag12
(g16
S'nu\xddm\xef&f@'
p478
tp479
Rp480
VSun Sep 23 12:54:30 +0000 2012
p481
VSun Sep 23 16:37:40 +0000 2012
p482
tp483
a((lp484
Vhaha
p485
aVthanks
p486
aVplease
p487
aVnight
p488
aVfollow
p489
aVover
p490
aVhelp
p491
aVhuge
p492
aVfollowers
p493
aVexposure
p494
ag12
(g16
S'\x8a\xa8\x7f\x18N\x16f@'
p495
tp496
Rp497
VSun Sep 23 13:35:06 +0000 2012
p498
VSun Sep 23 17:14:49 +0000 2012
p499
tp500
a((lp501
Vhaha
p502
aVthanks
p503
aVnight
p504
aVplease
p505
aVover
p506
aVfollow
p507
aVhelp
p508
aVhuge
p509
aVfollowers
p510
aVexposure
p511
ag12
(g16
S'\x89\xb9\xb7\xcaT\x05f@'
p512
tp513
Rp514
VSun Sep 23 14:15:52 +0000 2012
p515
VSun Sep 23 18:00:56 +0000 2012
p516
tp517
a((lp518
Vhaha
p519
aVthanks
p520
aVnight
p521
aVplease
p522
aVover
p523
aVfollow
p524
aVhelp
p525
aVfollowers
p526
aVhuge
p527
aVexposure
p528
ag12
(g16
S'\xf43?\xa4\x85\x19f@'
p529
tp530
Rp531
VSun Sep 23 15:03:39 +0000 2012
p532
VSun Sep 23 18:43:09 +0000 2012
p533
tp534
a((lp535
Vhaha
p536
aVnight
p537
aVthanks
p538
aVgreat
p539
aVfollow
p540
aVover
p541
aVhelp
p542
aVfollowers
p543
aVhuge
p544
aVexposure
p545
ag12
(g16
S'\xfavm\xad\x93Ec@'
p546
tp547
Rp548
VSun Sep 23 15:50:33 +0000 2012
p549
VSun Sep 23 19:20:20 +0000 2012
p550
tp551
a((lp552
Vwant
p553
aVwatching
p554
aVamazing
p555
aVweek
p556
aVwatch
p557
aVthrough
p558
aVgirl
p559
aVyear
p560
aVsong
p561
aVella
p562
ag12
(g16
S'd!\x01\xd9x\xfaN@'
p563
tp564
Rp565
VSun Sep 23 16:37:41 +0000 2012
p566
VSun Sep 23 19:51:51 +0000 2012
p567
tp568
a((lp569
Vterry
p570
aVjohn
p571
aVfootball
p572
aVengland
p573
aVinternational
p574
aVnews
p575
aVretires
p576
aVretired
p577
aVchelsea
p578
aVretirement
p579
ag12
(g16
S'H\xb0\xb7\xd4\x92\xbcq@'
p580
tp581
Rp582
VSun Sep 23 17:14:49 +0000 2012
p583
VSun Sep 23 20:22:25 +0000 2012
p584
tp585
a((lp586
Vterry
p587
aVjohn
p588
aVbest
p589
aVengland
p590
aVfootball
p591
aVinternational
p592
aVnews
p593
aVretires
p594
aVretired
p595
aVretirement
p596
ag12
(g16
S'\x96\xd8\xd81\x08\x9eu@'
p597
tp598
Rp599
VSun Sep 23 18:00:56 +0000 2012
p600
VSun Sep 23 20:58:23 +0000 2012
p601
tp602
a((lp603
Vterry
p604
aVjohn
p605
aVbest
p606
aVfootball
p607
aVengland
p608
aVinternational
p609
aVretired
p610
aVnews
p611
aVretires
p612
aVretirement
p613
ag12
(g16
S'\x9c\xf4\x83\xf6\xaa\x8cv@'
p614
tp615
Rp616
VSun Sep 23 18:43:09 +0000 2012
p617
VSun Sep 23 21:37:14 +0000 2012
p618
tp619
a((lp620
Vterry
p621
aVjohn
p622
aVbest
p623
aVfootball
p624
aVengland
p625
aVinternational
p626
aVretired
p627
aVretires
p628
aVnews
p629
aVretirement
p630
ag12
(g16
S'\x83\xa3\n0G\xa0w@'
p631
tp632
Rp633
VSun Sep 23 19:20:20 +0000 2012
p634
VSun Sep 23 22:21:42 +0000 2012
p635
tp636
a((lp637
Vterry
p638
aVjohn
p639
aVengland
p640
aVfootball
p641
aVinternational
p642
aVretired
p643
aVnews
p644
aVretires
p645
aVchelsea
p646
aVretirement
p647
ag12
(g16
S'b\xa1\x1f\x90ADq@'
p648
tp649
Rp650
VSun Sep 23 19:51:51 +0000 2012
p651
VSun Sep 23 23:31:31 +0000 2012
p652
tp653
a((lp654
Vnight
p655
aVtomorrow
p656
aVneed
p657
aVwork
p658
aVgonna
p659
aVafter
p660
aVfirst
p661
aVschool
p662
aVearly
p663
aVcollege
p664
ag12
(g16
S'BU\xf9\xdc=\x9dQ@'
p665
tp666
Rp667
VSun Sep 23 20:22:26 +0000 2012
p668
VMon Sep 24 04:24:26 +0000 2012
p669
tp670
a((lp671
Vnight
p672
aVtomorrow
p673
aVwork
p674
aVfirst
p675
aVgonna
p676
aVnext
p677
aVafter
p678
aVschool
p679
aVstart
p680
aVearly
p681
ag12
(g16
S'\x08K\xd85\xbc\x83Q@'
p682
tp683
Rp684
VSun Sep 23 20:58:25 +0000 2012
p685
VMon Sep 24 07:16:47 +0000 2012
p686
tp687
a((lp688
Vwork
p689
aVneed
p690
aVyeah
p691
aVtomorrow
p692
aVweek
p693
aVnext
p694
aVgetting
p695
aVafter
p696
aVstart
p697
aVearly
p698
ag12
(g16
S'\xe5\xeb\xb8\xc4F\xf2P@'
p699
tp700
Rp701
VSun Sep 23 21:37:14 +0000 2012
p702
VMon Sep 24 08:35:32 +0000 2012
p703
tp704
a((lp705
Vwork
p706
aVneed
p707
aVhaha
p708
aVonly
p709
aVweek
p710
aVmonday
p711
aVyeah
p712
aVgreat
p713
aVstart
p714
aVgetting
p715
ag12
(g16
S'\xa6\xe1\xd4\x0fs\x0cQ@'
p716
tp717
Rp718
VSun Sep 23 22:21:44 +0000 2012
p719
VMon Sep 24 09:53:05 +0000 2012
p720
tp721
a((lp722
Vwork
p723
aVweather
p724
aVweek
p725
aVmonday
p726
aVonly
p727
aVfirst
p728
aVyeah
p729
aVgreat
p730
aVstart
p731
aVnext
p732
ag12
(g16
S'\xba\xb2\xc8\x04\xcddR@'
p733
tp734
Rp735
VSun Sep 23 23:31:31 +0000 2012
p736
VMon Sep 24 11:03:22 +0000 2012
p737
tp738
a((lp739
Vwork
p740
aVrain
p741
aVweather
p742
aVneed
p743
aVweek
p744
aVmonday
p745
aVfirst
p746
aVgreat
p747
aVstart
p748
aVnext
p749
ag12
(g16
S'\xc7WWPstS@'
p750
tp751
Rp752
VMon Sep 24 04:24:36 +0000 2012
p753
VMon Sep 24 12:14:35 +0000 2012
p754
tp755
a((lp756
Vwork
p757
aVrain
p758
aVneed
p759
aVweather
p760
aVgreat
p761
aVmake
p762
aVmonday
p763
aVnext
p764
aVgetting
p765
aVstart
p766
ag12
(g16
S'z\xbcd\xf7z\xffN@'
p767
tp768
Rp769
VMon Sep 24 07:16:47 +0000 2012
p770
VMon Sep 24 13:23:26 +0000 2012
p771
tp772
a((lp773
Vwork
p774
aVrain
p775
aVneed
p776
aVhaha
p777
aVweather
p778
aVhere
p779
aVwant
p780
aVover
p781
aVright
p782
aVnever
p783
ag12
(g16
S'\x1a\xc9\x0bw\x87\xa6J@'
p784
tp785
Rp786
VMon Sep 24 08:35:35 +0000 2012
p787
VMon Sep 24 14:35:16 +0000 2012
p788
tp789
a((lp790
Vwork
p791
aVneed
p792
aVrain
p793
aVhaha
p794
aVhere
p795
aVwant
p796
aVonly
p797
aVweek
p798
aVover
p799
aVnever
p800
ag12
(g16
S'\x1d\x97\xda\xf8\xbfpI@'
p801
tp802
Rp803
VMon Sep 24 09:53:07 +0000 2012
p804
VMon Sep 24 15:36:40 +0000 2012
p805
tp806
a((lp807
Vmake
p808
aVplease
p809
aVbirthday
p810
aVtill
p811
aVparty
p812
aVnovember
p813
aVaged
p814
aVdylan
p815
aVprezzo
p816
aVbanstead
p817
ag12
(g16
S'\xbc~\xd0q\x91\xe2e@'
p818
tp819
Rp820
VMon Sep 24 11:03:22 +0000 2012
p821
VMon Sep 24 16:29:53 +0000 2012
p822
tp823
a((lp824
Vplease
p825
aVmake
p826
aVbirthday
p827
aVtill
p828
aVparty
p829
aVnovember
p830
aVaged
p831
aVdylan
p832
aVprezzo
p833
aVbanstead
p834
ag12
(g16
S'DZI\xebd\xe2e@'
p835
tp836
Rp837
VMon Sep 24 12:14:38 +0000 2012
p838
VMon Sep 24 17:19:33 +0000 2012
p839
tp840
a((lp841
Vneed
p842
aVhaha
p843
aVwork
p844
aVwant
p845
aVthem
p846
aVmake
p847
aVdone
p848
aVafter
p849
aVweek
p850
aVsomeone
p851
ag12
(g16
S'\xd2\xa7iV$PF@'
p852
tp853
Rp854
VMon Sep 24 13:23:27 +0000 2012
p855
VMon Sep 24 18:02:42 +0000 2012
p856
tp857
a((lp858
Vhaha
p859
aVneed
p860
aVwork
p861
aVyeah
p862
aVthanks
p863
aVstill
p864
aVthem
p865
aVmake
p866
aVsomeone
p867
aVweek
p868
ag12
(g16
S'<j\x1ek\t\x84H@'
p869
tp870
Rp871
VMon Sep 24 14:35:17 +0000 2012
p872
VMon Sep 24 18:46:41 +0000 2012
p873
tp874
a((lp875
Vhaha
p876
aVneed
p877
aVwork
p878
aVyeah
p879
aVthanks
p880
aVstill
p881
aVthem
p882
aVmake
p883
aVsomeone
p884
aVthough
p885
ag12
(g16
S'4 \xa2\x88\xaaAH@'
p886
tp887
Rp888
VMon Sep 24 15:36:41 +0000 2012
p889
VMon Sep 24 19:29:24 +0000 2012
p890
tp891
a((lp892
Vonly
p893
aVlife
p894
aVnever
p895
aVever
p896
aVi've
p897
aVbest
p898
aVdone
p899
aVfirst
p900
aVthing
p901
aVseen
p902
ag12
(g16
S'|\xbf~Q#@M@'
p903
tp904
Rp905
VMon Sep 24 16:29:54 +0000 2012
p906
VMon Sep 24 20:07:36 +0000 2012
p907
tp908
a((lp909
Vhaha
p910
aVyeah
p911
aVneed
p912
aVwork
p913
aVthanks
p914
aVthem
p915
aVtomorrow
p916
aVstill
p917
aVthat's
p918
aVthough
p919
ag12
(g16
S'`\xa3\xc5)\xd4*K@'
p920
tp921
Rp922
VMon Sep 24 17:19:33 +0000 2012
p923
VMon Sep 24 20:41:37 +0000 2012
p924
tp925
a((lp926
Vhaha
p927
aVyeah
p928
aVneed
p929
aVthanks
p930
aVtomorrow
p931
aVthem
p932
aVonly
p933
aVwork
p934
aVstill
p935
aVthough
p936
ag12
(g16
S'\xd8\x17\xe0\xf5d6J@'
p937
tp938
Rp939
VMon Sep 24 18:02:46 +0000 2012
p940
VMon Sep 24 21:18:16 +0000 2012
p941
tp942
a((lp943
Vhaha
p944
aVyeah
p945
aVneed
p946
aVwant
p947
aVthem
p948
aVonly
p949
aVwork
p950
aVstill
p951
aVafter
p952
aVthough
p953
ag12
(g16
S'\x0ci\x93,\xbc\x83J@'
p954
tp955
Rp956
VMon Sep 24 18:46:41 +0000 2012
p957
VMon Sep 24 21:55:44 +0000 2012
p958
tp959
a((lp960
Vhaha
p961
aVyeah
p962
aVneed
p963
aVwant
p964
aVtomorrow
p965
aVnever
p966
aVonly
p967
aVafter
p968
aVdoing
p969
aVthough
p970
ag12
(g16
S'\xfe\x946\xb7\xde/K@'
p971
tp972
Rp973
VMon Sep 24 19:29:27 +0000 2012
p974
VMon Sep 24 22:43:03 +0000 2012
p975
tp976
a((lp977
Vhaha
p978
aVyeah
p979
aVneed
p980
aVtomorrow
p981
aVstill
p982
aVthat's
p983
aVmake
p984
aVthan
p985
aVafter
p986
aVthough
p987
ag12
(g16
S'\xc4\xca\xa6a\xda\xa3K@'
p988
tp989
Rp990
VMon Sep 24 20:07:36 +0000 2012
p991
VTue Sep 25 00:14:32 +0000 2012
p992
tp993
a((lp994
Vfollow
p995
aVplease
p996
aVsomeone
p997
aVcould
p998
aVperson
p999
aVstop
p1000
aVfollowed
p1001
aValive
p1002
aVhappiest
p1003
aVcheryl
p1004
ag12
(g16
S'\xb5\xda\x93<\x17\x01j@'
p1005
tp1006
Rp1007
VMon Sep 24 20:41:38 +0000 2012
p1008
VTue Sep 25 06:04:20 +0000 2012
p1009
tp1010
a((lp1011
Vonly
p1012
aVthanks
p1013
aVhours
p1014
aVname
p1015
aVretweet
p1016
aVcover
p1017
aVflight
p1018
aVcosts
p1019
aVcocaine
p1020
aVdeadline
p1021
ag12
(g16
S'\xce\x7f\x82\xed\x80\xb0g@'
p1022
tp1023
Rp1024
VMon Sep 24 21:18:17 +0000 2012
p1025
VTue Sep 25 07:39:47 +0000 2012
p1026
tp1027
a((lp1028
Vonly
p1029
aVthanks
p1030
aVhours
p1031
aVname
p1032
aVretweet
p1033
aVcover
p1034
aVflight
p1035
aVcosts
p1036
aVrapper
p1037
aVdeadline
p1038
ag12
(g16
S'y\xb36\xe7@\xc7g@'
p1039
tp1040
Rp1041
VMon Sep 24 21:55:46 +0000 2012
p1042
VTue Sep 25 08:54:22 +0000 2012
p1043
tp1044
a((lp1045
Vthanks
p1046
aVonly
p1047
aVhours
p1048
aVname
p1049
aVretweet
p1050
aVcover
p1051
aVflight
p1052
aVdeadline
p1053
aVcosts
p1054
aVrapper
p1055
ag12
(g16
S'8\xc3EBO\xcfg@'
p1056
tp1057
Rp1058
VMon Sep 24 22:43:04 +0000 2012
p1059
VTue Sep 25 10:11:33 +0000 2012
p1060
tp1061
a((lp1062
Vthanks
p1063
aVonly
p1064
aVhours
p1065
aVname
p1066
aVretweet
p1067
aVcover
p1068
aVflight
p1069
aVcosts
p1070
aVdeadline
p1071
aVrapper
p1072
ag12
(g16
S'\x0b\xfaA\x1a\x88\xceg@'
p1073
tp1074
Rp1075
VTue Sep 25 00:14:35 +0000 2012
p1076
VTue Sep 25 11:58:20 +0000 2012
p1077
tp1078
a((lp1079
Vwork
p1080
aVneed
p1081
aVhaha
p1082
aVonly
p1083
aVgetting
p1084
aVnext
p1085
aVafter
p1086
aVweek
p1087
aVcould
p1088
aVstart
p1089
ag12
(g16
S'ZV\x90\xc0EbL@'
p1090
tp1091
Rp1092
VTue Sep 25 06:04:28 +0000 2012
p1093
VTue Sep 25 13:55:13 +0000 2012
p1094
tp1095
a((lp1096
Vneed
p1097
aVwork
p1098
aVhaha
p1099
aVthanks
p1100
aVyeah
p1101
aVonly
p1102
aVright
p1103
aVweek
p1104
aVnext
p1105
aVafter
p1106
ag12
(g16
S'\x00]\xe0\x97\xe2TK@'
p1107
tp1108
Rp1109
VTue Sep 25 07:39:47 +0000 2012
p1110
VTue Sep 25 15:02:49 +0000 2012
p1111
tp1112
a((lp1113
Vneed
p1114
aVhaha
p1115
aVwork
p1116
aVyeah
p1117
aVhere
p1118
aVonly
p1119
aVright
p1120
aVthat's
p1121
aVafter
p1122
aVweek
p1123
ag12
(g16
S'\xc4\xa1\x1by\xfc\xd7J@'
p1124
tp1125
Rp1126
VTue Sep 25 08:54:22 +0000 2012
p1127
VTue Sep 25 15:58:31 +0000 2012
p1128
tp1129
a((lp1130
Vneed
p1131
aVhaha
p1132
aVwork
p1133
aVwant
p1134
aVthanks
p1135
aVyeah
p1136
aVonly
p1137
aVmake
p1138
aVi've
p1139
aVnext
p1140
ag12
(g16
S'\xd3\xe8\xbc\x03\xca\xd5I@'
p1141
tp1142
Rp1143
VTue Sep 25 10:11:35 +0000 2012
p1144
VTue Sep 25 16:49:15 +0000 2012
p1145
tp1146
a((lp1147
Vneed
p1148
aVthanks
p1149
aVmake
p1150
aVfollow
p1151
aVgreat
p1152
aVhappy
p1153
aVyou're
p1154
aVplease
p1155
aVhope
p1156
aVbirthday
p1157
ag12
(g16
S'C\x1f\xd8K\xc3\x13X@'
p1158
tp1159
Rp1160
VTue Sep 25 11:58:21 +0000 2012
p1161
VTue Sep 25 17:37:51 +0000 2012
p1162
tp1163
a((lp1164
Vwant
p1165
aVthem
p1166
aVmake
p1167
aVfollow
p1168
aVplease
p1169
aVhappy
p1170
aVhope
p1171
aVyou're
p1172
aVbirthday
p1173
aVeveryone
p1174
ag12
(g16
S'x^\xc67\x11\x14Y@'
p1175
tp1176
Rp1177
VTue Sep 25 13:55:13 +0000 2012
p1178
VTue Sep 25 18:21:09 +0000 2012
p1179
tp1180
a((lp1181
Vwant
p1182
aVthem
p1183
aVthanks
p1184
aVmake
p1185
aVplease
p1186
aVfollow
p1187
aVhope
p1188
aVhappy
p1189
aVbirthday
p1190
aVeveryone
p1191
ag12
(g16
S'z\xe3e\x18\xa4uW@'
p1192
tp1193
Rp1194
VTue Sep 25 15:02:49 +0000 2012
p1195
VTue Sep 25 19:02:50 +0000 2012
p1196
tp1197
a((lp1198
Vwant
p1199
aVthem
p1200
aVthanks
p1201
aVmake
p1202
aVfollow
p1203
aVhope
p1204
aVhappy
p1205
aVplease
p1206
aVbirthday
p1207
aVsure
p1208
ag12
(g16
S'\x8b\xcf\xd5\xa8\x8d\x19W@'
p1209
tp1210
Rp1211
VTue Sep 25 15:58:33 +0000 2012
p1212
VTue Sep 25 19:42:51 +0000 2012
p1213
tp1214
a((lp1215
Vhaha
p1216
aVwant
p1217
aVthem
p1218
aVwork
p1219
aVyeah
p1220
aVstill
p1221
aVhere
p1222
aVi've
p1223
aVafter
p1224
aVseen
p1225
ag12
(g16
S'\xf8-\n E/H@'
p1226
tp1227
Rp1228
VTue Sep 25 16:49:17 +0000 2012
p1229
VTue Sep 25 20:21:28 +0000 2012
p1230
tp1231
a((lp1232
Vhaha
p1233
aVneed
p1234
aVwant
p1235
aVthem
p1236
aVonly
p1237
aVwork
p1238
aVstill
p1239
aVi've
p1240
aVeven
p1241
aVthough
p1242
ag12
(g16
S'\x1c\x1fa\xf0Y\x1fI@'
p1243
tp1244
Rp1245
VTue Sep 25 17:37:52 +0000 2012
p1246
VTue Sep 25 20:58:29 +0000 2012
p1247
tp1248
a((lp1249
Vwant
p1250
aVthem
p1251
aVyeah
p1252
aVstill
p1253
aVnever
p1254
aVeven
p1255
aVi've
p1256
aVhere
p1257
aVthough
p1258
aVafter
p1259
ag12
(g16
S'.v\xef\x95\x05TJ@'
p1260
tp1261
Rp1262
VTue Sep 25 18:21:10 +0000 2012
p1263
VTue Sep 25 21:33:43 +0000 2012
p1264
tp1265
a((lp1266
Vhaha
p1267
aVwant
p1268
aVneed
p1269
aVonly
p1270
aVthem
p1271
aVyeah
p1272
aVstill
p1273
aVnever
p1274
aVthough
p1275
aVi've
p1276
ag12
(g16
S'\xa7\xfeN\xa94\x93L@'
p1277
tp1278
Rp1279
VTue Sep 25 19:02:52 +0000 2012
p1280
VTue Sep 25 22:16:08 +0000 2012
p1281
tp1282
a((lp1283
Vhaha
p1284
aVwant
p1285
aVthem
p1286
aVyeah
p1287
aVnever
p1288
aVstill
p1289
aVeven
p1290
aVright
p1291
aVthough
p1292
aVsomeone
p1293
ag12
(g16
S'\xa0\xf9U\xc4\x9c\xc5L@'
p1294
tp1295
Rp1296
VTue Sep 25 19:42:53 +0000 2012
p1297
VTue Sep 25 23:20:57 +0000 2012
p1298
tp1299
a((lp1300
Vhaha
p1301
aVneed
p1302
aVwant
p1303
aVonly
p1304
aVyeah
p1305
aVthem
p1306
aVnever
p1307
aVstill
p1308
aVi've
p1309
aVthough
p1310
ag12
(g16
S'\xb8\xc2\xfb\xb02\xacJ@'
p1311
tp1312
Rp1313
VTue Sep 25 20:21:29 +0000 2012
p1314
VWed Sep 26 03:05:45 +0000 2012
p1315
tp1316
a((lp1317
Vhaha
p1318
aVneed
p1319
aVwant
p1320
aVyeah
p1321
aVstill
p1322
aVthem
p1323
aVnever
p1324
aVmake
p1325
aVeven
p1326
aVthough
p1327
ag12
(g16
S'\x16\x0eh\xfb\x1c\xdaI@'
p1328
tp1329
Rp1330
VTue Sep 25 20:58:30 +0000 2012
p1331
VWed Sep 26 07:10:37 +0000 2012
p1332
tp1333
a((lp1334
Vfollow
p1335
aVplease
p1336
aVthanks
p1337
aVpolice
p1338
aVfollowing
p1339
aVrecent
p1340
aVfallen
p1341
aVofficers
p1342
aVmurders
p1343
aVcolleagues
p1344
ag12
(g16
S'\x1c*\xf9$\xe9\x88u@'
p1345
tp1346
Rp1347
VTue Sep 25 21:33:46 +0000 2012
p1348
VWed Sep 26 08:23:49 +0000 2012
p1349
tp1350
a((lp1351
Vfollow
p1352
aVplease
p1353
aVthanks
p1354
aVpolice
p1355
aVfollowing
p1356
aVrecent
p1357
aVfallen
p1358
aVofficers
p1359
aVcolleagues
p1360
aVmurders
p1361
ag12
(g16
S'\xb9\x95\x8fJG\x8cu@'
p1362
tp1363
Rp1364
VTue Sep 25 22:16:09 +0000 2012
p1365
VWed Sep 26 09:41:53 +0000 2012
p1366
tp1367
a((lp1368
Vthanks
p1369
aVplease
p1370
aVfollow
p1371
aVpolice
p1372
aVfollowing
p1373
aVfallen
p1374
aVcolleagues
p1375
aVofficers
p1376
aVrecent
p1377
aVmurders
p1378
ag12
(g16
S'Q\xaf\xd0_L\x81u@'
p1379
tp1380
Rp1381
VTue Sep 25 23:20:58 +0000 2012
p1382
VWed Sep 26 10:53:12 +0000 2012
p1383
tp1384
a((lp1385
Vthanks
p1386
aVplease
p1387
aVfollow
p1388
aVpolice
p1389
aVfollowing
p1390
aVfallen
p1391
aVcolleagues
p1392
aVofficers
p1393
aVrecent
p1394
aVmurders
p1395
ag12
(g16
S'\x04\xfe\x19T\x8c\x84u@'
p1396
tp1397
Rp1398
VWed Sep 26 03:05:52 +0000 2012
p1399
VWed Sep 26 12:04:18 +0000 2012
p1400
tp1401
a((lp1402
Vthanks
p1403
aVplease
p1404
aVfollow
p1405
aVpolice
p1406
aVfollowing
p1407
aVcolleagues
p1408
aVofficers
p1409
aVfallen
p1410
aVrecent
p1411
aVmurders
p1412
ag12
(g16
S'\x9e\xf9&\x0fM\x83u@'
p1413
tp1414
Rp1415
VWed Sep 26 07:10:37 +0000 2012
p1416
VWed Sep 26 13:10:40 +0000 2012
p1417
tp1418
a((lp1419
Vhaha
p1420
aVneed
p1421
aVyeah
p1422
aVstill
p1423
aVgreat
p1424
aVnext
p1425
aVi've
p1426
aVthat's
p1427
aVweek
p1428
aVthough
p1429
ag12
(g16
S'0\x11\\\x06\xb5>M@'
p1430
tp1431
Rp1432
VWed Sep 26 08:23:50 +0000 2012
p1433
VWed Sep 26 14:16:09 +0000 2012
p1434
tp1435
a((lp1436
Vhaha
p1437
aVneed
p1438
aVstill
p1439
aVyeah
p1440
aVgreat
p1441
aVnight
p1442
aVi've
p1443
aVnext
p1444
aVhope
p1445
aVweek
p1446
ag12
(g16
S'\xe8\x03\xe4>\xeb\x18K@'
p1447
tp1448
Rp1449
VWed Sep 26 09:41:53 +0000 2012
p1450
VWed Sep 26 15:15:56 +0000 2012
p1451
tp1452
a((lp1453
Vhaha
p1454
aVneed
p1455
aVwork
p1456
aVyeah
p1457
aVstill
p1458
aVthem
p1459
aVeven
p1460
aVthough
p1461
aVweek
p1462
aVyear
p1463
ag12
(g16
S'\x14\xde\x88aF\x1fJ@'
p1464
tp1465
Rp1466
VWed Sep 26 10:53:13 +0000 2012
p1467
VWed Sep 26 16:09:27 +0000 2012
p1468
tp1469
a((lp1470
Vhaha
p1471
aVneed
p1472
aVwork
p1473
aVwant
p1474
aVyeah
p1475
aVthem
p1476
aVstill
p1477
aVthat's
p1478
aVthough
p1479
aVweek
p1480
ag12
(g16
S'\xb4\x13\x90\xae\x9fjK@'
p1481
tp1482
Rp1483
VWed Sep 26 12:04:21 +0000 2012
p1484
VWed Sep 26 16:58:45 +0000 2012
p1485
tp1486
a((lp1487
Vhaha
p1488
aVneed
p1489
aVwork
p1490
aVonly
p1491
aVstill
p1492
aVthem
p1493
aVyeah
p1494
aVnext
p1495
aVeven
p1496
aVthough
p1497
ag12
(g16
S'\xcb\x9b\x02\x18\xfe\rK@'
p1498
tp1499
Rp1500
VWed Sep 26 13:10:40 +0000 2012
p1501
VWed Sep 26 17:43:50 +0000 2012
p1502
tp1503
a((lp1504
Vhaha
p1505
aVneed
p1506
aVwork
p1507
aVyeah
p1508
aVthem
p1509
aVstill
p1510
aVonly
p1511
aVmake
p1512
aVnext
p1513
aVeven
p1514
ag12
(g16
S'\xb7\xf4(\x9bxmI@'
p1515
tp1516
Rp1517
VWed Sep 26 14:16:09 +0000 2012
p1518
VWed Sep 26 18:23:19 +0000 2012
p1519
tp1520
a((lp1521
Vhaha
p1522
aVneed
p1523
aVthem
p1524
aVwork
p1525
aVyeah
p1526
aVstill
p1527
aVmake
p1528
aVnext
p1529
aVthough
p1530
aVeven
p1531
ag12
(g16
S'\x82\xa8\xb1\xfb\xaa:I@'
p1532
tp1533
Rp1534
VWed Sep 26 15:15:57 +0000 2012
p1535
VWed Sep 26 19:05:19 +0000 2012
p1536
tp1537
a((lp1538
Vhaha
p1539
aVneed
p1540
aVwant
p1541
aVthem
p1542
aVwork
p1543
aVstill
p1544
aVtomorrow
p1545
aVi've
p1546
aVshould
p1547
aVmake
p1548
ag12
(g16
S"\x99\x8a\xc0\x8bz'F@"
p1549
tp1550
Rp1551
VWed Sep 26 16:09:28 +0000 2012
p1552
VWed Sep 26 19:46:57 +0000 2012
p1553
tp1554
a((lp1555
Varsenal
p1556
aVemirates
p1557
aVgame
p1558
aVstadium
p1559
aVgiroud
p1560
aVcity
p1561
aVcoventry
p1562
aVgunners
p1563
aVblues
p1564
aVhighbury
p1565
ag12
(g16
S'\xc8U\xe6b\t\xcfe@'
p1566
tp1567
Rp1568
VWed Sep 26 16:58:46 +0000 2012
p1569
VWed Sep 26 20:25:35 +0000 2012
p1570
tp1571
a((lp1572
Varsenal
p1573
aVgame
p1574
aVemirates
p1575
aVstadium
p1576
aVcoventry
p1577
aVcity
p1578
aVfootball
p1579
aVgunners
p1580
aVblues
p1581
aVhighbury
p1582
ag12
(g16
S'\xd1\xfd\xd4%\x05Gf@'
p1583
tp1584
Rp1585
VWed Sep 26 17:43:51 +0000 2012
p1586
VWed Sep 26 21:02:05 +0000 2012
p1587
tp1588
a((lp1589
Varsenal
p1590
aVgame
p1591
aVemirates
p1592
aVgiroud
p1593
aVstadium
p1594
aVcoventry
p1595
aVcity
p1596
aVgunners
p1597
aVblues
p1598
aVhighbury
p1599
ag12
(g16
S'A\xa8P)G\x9f`@'
p1600
tp1601
Rp1602
VWed Sep 26 18:23:21 +0000 2012
p1603
VWed Sep 26 21:33:24 +0000 2012
p1604
tp1605
a((lp1606
Vdrugslive
p1607
aVwatching
p1608
aVlive
p1609
aVwatch
p1610
aVdrugs
p1611
aVmdma
p1612
aVchannel
p1613
aVtaking
p1614
aVinteresting
p1615
aVecstasy
p1616
ag12
(g16
S'\x08L-R\x90oT@'
p1617
tp1618
Rp1619
VWed Sep 26 19:05:19 +0000 2012
p1620
VWed Sep 26 22:11:20 +0000 2012
p1621
tp1622
a((lp1623
Vdrugslive
p1624
aVwatching
p1625
aVlive
p1626
aVdrugs
p1627
aVtake
p1628
aVwatch
p1629
aVmdma
p1630
aVchannel
p1631
aVtaking
p1632
aVecstasy
p1633
ag12
(g16
S'\xce)tU\x80\xecW@'
p1634
tp1635
Rp1636
VWed Sep 26 19:46:57 +0000 2012
p1637
VWed Sep 26 23:05:04 +0000 2012
p1638
tp1639
a((lp1640
Vdrugslive
p1641
aVwatching
p1642
aVtake
p1643
aVdrugs
p1644
aVlive
p1645
aVwatch
p1646
aVmdma
p1647
aVchannel
p1648
aVtaking
p1649
aVecstasy
p1650
ag12
(g16
S'\x0e\x88\xef`!\xbdX@'
p1651
tp1652
Rp1653
VWed Sep 26 20:25:35 +0000 2012
p1654
VThu Sep 27 01:20:18 +0000 2012
p1655
tp1656
a((lp1657
Vdrugslive
p1658
aVwatching
p1659
aVtake
p1660
aVdrugs
p1661
aVlive
p1662
aVwatch
p1663
aVmdma
p1664
aVtaking
p1665
aVchannel
p1666
aVecstasy
p1667
ag12
(g16
S'\x12M\xfc8L\x0eX@'
p1668
tp1669
Rp1670
VWed Sep 26 21:02:06 +0000 2012
p1671
VThu Sep 27 06:50:14 +0000 2012
p1672
tp1673
a((lp1674
Vnight
p1675
aVhaha
p1676
aVneed
p1677
aVwork
p1678
aVstill
p1679
aVthanks
p1680
aVyeah
p1681
aVright
p1682
aVthat's
p1683
aVthem
p1684
ag12
(g16
S'\xcb\xe3\x82d\xa0FM@'
p1685
tp1686
Rp1687
VWed Sep 26 21:33:26 +0000 2012
p1688
VThu Sep 27 08:10:56 +0000 2012
p1689
tp1690
a((lp1691
Vthanks
p1692
aVgreat
p1693
aVmake
p1694
aVbirthday
p1695
aVtomorrow
p1696
aVvery
p1697
aVhope
p1698
aVlittle
p1699
aVlovely
p1700
aVgoogle
p1701
ag12
(g16
S'\xf9\x17\xbc\x98u,_@'
p1702
tp1703
Rp1704
VWed Sep 26 22:11:21 +0000 2012
p1705
VThu Sep 27 09:31:11 +0000 2012
p1706
tp1707
a((lp1708
Vwork
p1709
aVnight
p1710
aVneed
p1711
aVhaha
p1712
aVstill
p1713
aVgreat
p1714
aVgetting
p1715
aVfeel
p1716
aVbetter
p1717
aVthan
p1718
ag12
(g16
S'\xc6\xdcR\xb1c$O@'
p1719
tp1720
Rp1721
VWed Sep 26 23:05:04 +0000 2012
p1722
VThu Sep 27 10:46:35 +0000 2012
p1723
tp1724
a((lp1725
Vwork
p1726
aVhaha
p1727
aVneed
p1728
aVnight
p1729
aVstill
p1730
aVwant
p1731
aVnext
p1732
aVgreat
p1733
aVgetting
p1734
aVbetter
p1735
ag12
(g16
S'\xa8\x84B\xb6\x10\xcdN@'
p1736
tp1737
Rp1738
VThu Sep 27 01:20:23 +0000 2012
p1739
VThu Sep 27 11:53:06 +0000 2012
p1740
tp1741
a((lp1742
Vwork
p1743
aVthanks
p1744
aVhaha
p1745
aVneed
p1746
aVnight
p1747
aVgreat
p1748
aVyeah
p1749
aVnext
p1750
aVgetting
p1751
aVafter
p1752
ag12
(g16
S'q\xaa\xb1/p\x05M@'
p1753
tp1754
Rp1755
VThu Sep 27 06:50:16 +0000 2012
p1756
VThu Sep 27 12:58:04 +0000 2012
p1757
tp1758
a((lp1759
Vwork
p1760
aVthanks
p1761
aVstill
p1762
aVgreat
p1763
aVnext
p1764
aVplease
p1765
aVlooking
p1766
aVlook
p1767
aVtomorrow
p1768
aVafter
p1769
ag12
(g16
S'H\xb8*\xc7\xe1\x18Q@'
p1770
tp1771
Rp1772
VThu Sep 27 08:11:00 +0000 2012
p1773
VThu Sep 27 14:03:40 +0000 2012
p1774
tp1775
a((lp1776
Vwork
p1777
aVneed
p1778
aVhaha
p1779
aVnext
p1780
aVyeah
p1781
aVtomorrow
p1782
aVweek
p1783
aVafter
p1784
aVyear
p1785
aVweekend
p1786
ag12
(g16
S'\\\xff\x12"EmP@'
p1787
tp1788
Rp1789
VThu Sep 27 09:31:13 +0000 2012
p1790
VThu Sep 27 15:04:48 +0000 2012
p1791
tp1792
a((lp1793
Vhaha
p1794
aVneed
p1795
aVwant
p1796
aVstill
p1797
aVtomorrow
p1798
aVgetting
p1799
aVafter
p1800
aVyear
p1801
aVweek
p1802
aVweekend
p1803
ag12
(g16
S' \xc2e\x8b{\x81M@'
p1804
tp1805
Rp1806
VThu Sep 27 10:46:35 +0000 2012
p1807
VThu Sep 27 15:58:57 +0000 2012
p1808
tp1809
a((lp1810
Vneed
p1811
aVwant
p1812
aVstill
p1813
aVshould
p1814
aVgetting
p1815
aVeven
p1816
aVdown
p1817
aVyear
p1818
aVweek
p1819
aVweekend
p1820
ag12
(g16
S'\xd0\x17hc\x02\x01I@'
p1821
tp1822
Rp1823
VThu Sep 27 11:53:07 +0000 2012
p1824
VThu Sep 27 16:54:08 +0000 2012
p1825
tp1826
a((lp1827
Vneed
p1828
aVwork
p1829
aVwant
p1830
aVstill
p1831
aVyeah
p1832
aVtomorrow
p1833
aVeven
p1834
aVnight
p1835
aVyear
p1836
aVweek
p1837
ag12
(g16
S':[\x88\xc2\xfa\xedH@'
p1838
tp1839
Rp1840
VThu Sep 27 12:58:04 +0000 2012
p1841
VThu Sep 27 17:39:36 +0000 2012
p1842
tp1843
a((lp1844
Vneed
p1845
aVwork
p1846
aVonly
p1847
aVtomorrow
p1848
aVthem
p1849
aVstill
p1850
aVnext
p1851
aVnight
p1852
aVgetting
p1853
aVafter
p1854
ag12
(g16
S'\x10\x8dK\xf5\xa6"I@'
p1855
tp1856
Rp1857
VThu Sep 27 14:03:41 +0000 2012
p1858
VThu Sep 27 18:23:54 +0000 2012
p1859
tp1860
a((lp1861
Vhaha
p1862
aVneed
p1863
aVwork
p1864
aVyeah
p1865
aVtomorrow
p1866
aVthem
p1867
aVnight
p1868
aVgonna
p1869
aVfifa
p1870
aVweekend
p1871
ag12
(g16
S'\x07>\xabcf\x85F@'
p1872
tp1873
Rp1874
VThu Sep 27 15:04:48 +0000 2012
p1875
VThu Sep 27 19:08:50 +0000 2012
p1876
tp1877
a((lp1878
Vhaha
p1879
aVneed
p1880
aVtomorrow
p1881
aVyeah
p1882
aVwork
p1883
aVnight
p1884
aVgonna
p1885
aVafter
p1886
aVweek
p1887
aVweekend
p1888
ag12
(g16
S'0\x8cf#\x8b\xceH@'
p1889
tp1890
Rp1891
VThu Sep 27 15:58:58 +0000 2012
p1892
VThu Sep 27 19:54:02 +0000 2012
p1893
tp1894
a((lp1895
Vhaha
p1896
aVneed
p1897
aVtomorrow
p1898
aVwant
p1899
aVyeah
p1900
aVwork
p1901
aVstill
p1902
aVeven
p1903
aVgonna
p1904
aVafter
p1905
ag12
(g16
S'\xd6~H\xd3T|F@'
p1906
tp1907
Rp1908
VThu Sep 27 16:54:08 +0000 2012
p1909
VThu Sep 27 20:34:57 +0000 2012
p1910
tp1911
a((lp1912
Vtomorrow
p1913
aVneed
p1914
aVyeah
p1915
aVwork
p1916
aVstill
p1917
aVgonna
p1918
aVafter
p1919
aVnext
p1920
aVlong
p1921
aVweek
p1922
ag12
(g16
S'\xe0\xb6q[\xab;J@'
p1923
tp1924
Rp1925
VThu Sep 27 17:39:37 +0000 2012
p1926
VThu Sep 27 21:13:14 +0000 2012
p1927
tp1928
a((lp1929
Vhaha
p1930
aVtomorrow
p1931
aVneed
p1932
aVnight
p1933
aVyeah
p1934
aVwant
p1935
aVwork
p1936
aVafter
p1937
aVgonna
p1938
aVfirst
p1939
ag12
(g16
S'0W<\x11_|L@'
p1940
tp1941
Rp1942
VThu Sep 27 18:23:55 +0000 2012
p1943
VThu Sep 27 21:52:14 +0000 2012
p1944
tp1945
a((lp1946
Vtomorrow
p1947
aVhaha
p1948
aVneed
p1949
aVwant
p1950
aVyeah
p1951
aVwork
p1952
aVstill
p1953
aVgonna
p1954
aVi've
p1955
aVsure
p1956
ag12
(g16
S'\x01\xcd\x1c2\xebZK@'
p1957
tp1958
Rp1959
VThu Sep 27 19:08:51 +0000 2012
p1960
VThu Sep 27 22:38:01 +0000 2012
p1961
tp1962
a((lp1963
Vtomorrow
p1964
aVnight
p1965
aVwant
p1966
aVwork
p1967
aVfifa
p1968
aVi've
p1969
aVgonna
p1970
aVgetting
p1971
aVafter
p1972
aVfirst
p1973
ag12
(g16
S'\x10\xcd&\x05\x02\x0eO@'
p1974
tp1975
Rp1976
VThu Sep 27 19:54:02 +0000 2012
p1977
VThu Sep 27 23:56:22 +0000 2012
p1978
tp1979
a((lp1980
Vnight
p1981
aVtomorrow
p1982
aVwork
p1983
aVfifa
p1984
aVlife
p1985
aVi've
p1986
aVgonna
p1987
aVagain
p1988
aVfirst
p1989
aVafter
p1990
ag12
(g16
S'\x19\xe1u\xde\xb7|O@'
p1991
tp1992
Rp1993
VThu Sep 27 20:34:58 +0000 2012
p1994
VFri Sep 28 05:19:12 +0000 2012
p1995
tp1996
a((lp1997
Vnight
p1998
aVwork
p1999
aVtomorrow
p2000
aVstill
p2001
aVgreat
p2002
aVgetting
p2003
aVfirst
p2004
aVfriday
p2005
aVearly
p2006
aVbefore
p2007
ag12
(g16
S'\x83\xdd\xc1\x1el\xcdN@'
p2008
tp2009
Rp2010
VThu Sep 27 21:13:14 +0000 2012
p2011
VFri Sep 28 07:21:54 +0000 2012
p2012
tp2013
a((lp2014
Vnight
p2015
aVgreat
p2016
aVhappy
p2017
aVtomorrow
p2018
aVhope
p2019
aVfriday
p2020
aVbirthday
p2021
aVwait
p2022
aVamazing
p2023
aVlovely
p2024
ag12
(g16
S'Rz\xba\x97l/Z@'
p2025
tp2026
Rp2027
VThu Sep 27 21:52:18 +0000 2012
p2028
VFri Sep 28 08:29:53 +0000 2012
p2029
tp2030
a((lp2031
Vwork
p2032
aVthanks
p2033
aVhappy
p2034
aVgreat
p2035
aVfriday
p2036
aVtomorrow
p2037
aVhope
p2038
aVbirthday
p2039
aVwait
p2040
aVweekend
p2041
ag12
(g16
S'\xbe\x0e\x19(f\x0e^@'
p2042
tp2043
Rp2044
VThu Sep 27 22:38:02 +0000 2012
p2045
VFri Sep 28 09:35:36 +0000 2012
p2046
tp2047
a((lp2048
Vfree
p2049
aVtomorrow
p2050
aVbirthday
p2051
aVevent
p2052
aVlive
p2053
aVmusic
p2054
aVjohn
p2055
aVexhibitions
p2056
aVclubbing
p2057
aVnightlife
p2058
ag12
(g16
S'\x8f?\xfb\x02J\x16a@'
p2059
tp2060
Rp2061
VThu Sep 27 23:56:23 +0000 2012
p2062
VFri Sep 28 10:37:09 +0000 2012
p2063
tp2064
a((lp2065
Vfree
p2066
aVtomorrow
p2067
aVevent
p2068
aVlive
p2069
aVmusic
p2070
aVexhibitions
p2071
aVbattersea
p2072
aVnightlife
p2073
aVclubbing
p2074
aVartists
p2075
ag12
(g16
S'\x8e\x96\xdbg\x04Xc@'
p2076
tp2077
Rp2078
VFri Sep 28 05:19:15 +0000 2012
p2079
VFri Sep 28 11:40:12 +0000 2012
p2080
tp2081
a((lp2082
Vfree
p2083
aVtomorrow
p2084
aVevent
p2085
aVlive
p2086
aVmusic
p2087
aVjohn
p2088
aVexhibitions
p2089
aVcontemporary
p2090
aVinfrastructures
p2091
aVexhibtion
p2092
ag12
(g16
S'DoXCc\xd6e@'
p2093
tp2094
Rp2095
VFri Sep 28 07:21:54 +0000 2012
p2096
VFri Sep 28 12:39:02 +0000 2012
p2097
tp2098
a((lp2099
Vfree
p2100
aVevent
p2101
aVtomorrow
p2102
aVlive
p2103
aVmusic
p2104
aVjohn
p2105
aVexhibitions
p2106
aVproperty
p2107
aVberger
p2108
aVarchives
p2109
ag12
(g16
S'\xc0\xce^\xe4+\rg@'
p2110
tp2111
Rp2112
VFri Sep 28 08:29:53 +0000 2012
p2113
VFri Sep 28 13:38:19 +0000 2012
p2114
tp2115
a((lp2116
Vfree
p2117
aVnight
p2118
aVtomorrow
p2119
aVevent
p2120
aVlive
p2121
aVmusic
p2122
aVexhibitions
p2123
aVfestivals
p2124
aVclubbing
p2125
aVnightlife
p2126
ag12
(g16
S'\xcb\xd2\xd6\xfd\x84\x18f@'
p2127
tp2128
Rp2129
VFri Sep 28 09:35:37 +0000 2012
p2130
VFri Sep 28 14:36:28 +0000 2012
p2131
tp2132
a((lp2133
Vfree
p2134
aVnight
p2135
aVtomorrow
p2136
aVevent
p2137
aVlive
p2138
aVmusic
p2139
aVexhibitions
p2140
aVfestivals
p2141
aVcontemporary
p2142
aVinfrastructures
p2143
ag12
(g16
S'\xdc5\x80\n\xe07b@'
p2144
tp2145
Rp2146
VFri Sep 28 10:37:09 +0000 2012
p2147
VFri Sep 28 15:27:48 +0000 2012
p2148
tp2149
a((lp2150
Vfree
p2151
aVtomorrow
p2152
aVnight
p2153
aVevent
p2154
aVlive
p2155
aVmusic
p2156
aVclub
p2157
aVexhibitions
p2158
aVfestivals
p2159
aVcontemporary
p2160
ag12
(g16
S'\x04\x9cX\xa7\x01\x8da@'
p2161
tp2162
Rp2163
VFri Sep 28 11:40:12 +0000 2012
p2164
VFri Sep 28 16:17:45 +0000 2012
p2165
tp2166
a((lp2167
Vfree
p2168
aVtomorrow
p2169
aVnight
p2170
aVlive
p2171
aVevent
p2172
aVmusic
p2173
aVclub
p2174
aVfilm
p2175
aVexhibitions
p2176
aVfestivals
p2177
ag12
(g16
S'\xa9\x05Gz\x92\xd1\\@'
p2178
tp2179
Rp2180
VFri Sep 28 12:39:02 +0000 2012
p2181
VFri Sep 28 17:04:24 +0000 2012
p2182
tp2183
a((lp2184
Vfollow
p2185
aVplease
p2186
aVguys
p2187
aVgive
p2188
aVtrying
p2189
aVgirls
p2190
aVyouu
p2191
aVlmqa
p2192
aVdate
p2193
aVnotice
p2194
ag12
(g16
S'\xe7\xe2\xde<\xfb\xe0i@'
p2195
tp2196
Rp2197
VFri Sep 28 13:38:21 +0000 2012
p2198
VFri Sep 28 17:51:44 +0000 2012
p2199
tp2200
a((lp2201
Vfollow
p2202
aVplease
p2203
aVguys
p2204
aVgive
p2205
aVtrying
p2206
aVgirls
p2207
aVyouu
p2208
aVlmqa
p2209
aVdate
p2210
aVnotice
p2211
ag12
(g16
S'\xeab\xc0\xf9N\xb8i@'
p2212
tp2213
Rp2214
VFri Sep 28 14:36:29 +0000 2012
p2215
VFri Sep 28 18:38:22 +0000 2012
p2216
tp2217
a((lp2218
Vnight
p2219
aVtill
p2220
aVlate
p2221
aVearly
p2222
aVtuesday
p2223
aVavailable
p2224
aVthursday
p2225
aVbird
p2226
aVlessons
p2227
aVflexible
p2228
ag12
(g16
S'\x1e\x90\x00f\xb2Li@'
p2229
tp2230
Rp2231
VFri Sep 28 15:27:49 +0000 2012
p2232
VFri Sep 28 19:25:45 +0000 2012
p2233
tp2234
a((lp2235
Vfollow
p2236
aVplease
p2237
aVgive
p2238
aVgirls
p2239
aVtrying
p2240
aVlmqa
p2241
aVyouu
p2242
aVbrazil
p2243
aVnotice
p2244
aVloves
p2245
ag12
(g16
S'\x84,\xdd\x81^\xc8g@'
p2246
tp2247
Rp2248
VFri Sep 28 16:17:46 +0000 2012
p2249
VFri Sep 28 20:09:51 +0000 2012
p2250
tp2251
a((lp2252
Vfollow
p2253
aVplease
p2254
aVgive
p2255
aVgirls
p2256
aVtrying
p2257
aVlmqa
p2258
aVyouu
p2259
aVbrazil
p2260
aVnotice
p2261
aVloves
p2262
ag12
(g16
S'C\x87\xe2O\x1f\xdeg@'
p2263
tp2264
Rp2265
VFri Sep 28 17:04:24 +0000 2012
p2266
VFri Sep 28 20:52:54 +0000 2012
p2267
tp2268
a((lp2269
Vnight
p2270
aVtomorrow
p2271
aVneed
p2272
aVgreat
p2273
aVwork
p2274
aVgonna
p2275
aVnext
p2276
aVweek
p2277
aVfriday
p2278
aVafter
p2279
ag12
(g16
S'\xeb\xe3}Ha\xbdR@'
p2280
tp2281
Rp2282
VFri Sep 28 17:51:45 +0000 2012
p2283
VFri Sep 28 21:39:29 +0000 2012
p2284
tp2285
a((lp2286
Vnight
p2287
aVtomorrow
p2288
aVgreat
p2289
aVwork
p2290
aVgonna
p2291
aVlife
p2292
aVfriday
p2293
aVafter
p2294
aVweek
p2295
aVearly
p2296
ag12
(g16
S'\tc\xd9\xfb\xe2\xa6R@'
p2297
tp2298
Rp2299
VFri Sep 28 18:38:23 +0000 2012
p2300
VFri Sep 28 22:25:20 +0000 2012
p2301
tp2302
a((lp2303
Vnight
p2304
aVtomorrow
p2305
aVgreat
p2306
aVwork
p2307
aVlife
p2308
aVnext
p2309
aVgonna
p2310
aVafter
p2311
aVfriday
p2312
aVearly
p2313
ag12
(g16
S'\xf5\x16\x9aE\xf0vR@'
p2314
tp2315
Rp2316
VFri Sep 28 19:25:45 +0000 2012
p2317
VFri Sep 28 23:24:27 +0000 2012
p2318
tp2319
a((lp2320
Vnight
p2321
aVtomorrow
p2322
aVneed
p2323
aVstill
p2324
aVwork
p2325
aVgreat
p2326
aVgonna
p2327
aVafter
p2328
aVfriday
p2329
aVearly
p2330
ag12
(g16
S'Y\xef\xcc\xc1y\x12R@'
p2331
tp2332
Rp2333
VFri Sep 28 20:09:51 +0000 2012
p2334
VSat Sep 29 01:20:45 +0000 2012
p2335
tp2336
a((lp2337
Vnight
p2338
aVneed
p2339
aVtomorrow
p2340
aVstill
p2341
aVwork
p2342
aVafter
p2343
aVbefore
p2344
aVearly
p2345
aVfriday
p2346
aVlate
p2347
ag12
(g16
S'\x9a\x00\x9d\xf2\xec\x1fP@'
p2348
tp2349
Rp2350
VFri Sep 28 20:52:54 +0000 2012
p2351
VSat Sep 29 06:43:56 +0000 2012
p2352
tp2353
a((lp2354
Vnight
p2355
aVwork
p2356
aVneed
p2357
aVstill
p2358
aVtomorrow
p2359
aVgreat
p2360
aVearly
p2361
aVafter
p2362
aVhours
p2363
aVfriday
p2364
ag12
(g16
S'\xe8$6t4\xd2O@'
p2365
tp2366
Rp2367
VFri Sep 28 21:39:30 +0000 2012
p2368
VSat Sep 29 08:28:22 +0000 2012
p2369
tp2370
a((lp2371
Vnight
p2372
aVwork
p2373
aVneed
p2374
aVstill
p2375
aVgreat
p2376
aVtomorrow
p2377
aVhope
p2378
aVeven
p2379
aVafter
p2380
aVhours
p2381
ag12
(g16
S'~\xd0\xa2\xba!\x93M@'
p2382
tp2383
Rp2384
VFri Sep 28 22:25:20 +0000 2012
p2385
VSat Sep 29 09:32:10 +0000 2012
p2386
tp2387
a((lp2388
Vnight
p2389
aVgreat
p2390
aVfree
p2391
aVtomorrow
p2392
aVmusic
p2393
aVlive
p2394
aVclub
p2395
aVevent
p2396
aVexhibitions
p2397
aVgigs
p2398
ag12
(g16
S'\xe0\xb8[\x8ap=Y@'
p2399
tp2400
Rp2401
VFri Sep 28 23:24:31 +0000 2012
p2402
VSat Sep 29 10:26:57 +0000 2012
p2403
tp2404
a((lp2405
Vnight
p2406
aVfree
p2407
aVtomorrow
p2408
aVlive
p2409
aVmusic
p2410
aVevent
p2411
aVclub
p2412
aVborough
p2413
aVexhibitions
p2414
aVgigs
p2415
ag12
(g16
S'\xe8\xe5\xd2\x90\xb2\x9f[@'
p2416
tp2417
Rp2418
VSat Sep 29 01:20:46 +0000 2012
p2419
VSat Sep 29 11:15:58 +0000 2012
p2420
tp2421
a((lp2422
Varsenal
p2423
aVchelsea
p2424
aVhere
p2425
aVgame
p2426
aVemirates
p2427
aVstadium
p2428
aVwatch
p2429
aVgunners
p2430
aVblues
p2431
aVhighbury
p2432
ag12
(g16
S'\x7f\x9fBg\xd6Wi@'
p2433
tp2434
Rp2435
VSat Sep 29 06:43:56 +0000 2012
p2436
VSat Sep 29 12:05:36 +0000 2012
p2437
tp2438
a((lp2439
Varsenal
p2440
aVchelsea
p2441
aVhere
p2442
aVgame
p2443
aVemirates
p2444
aVstadium
p2445
aVwatch
p2446
aVgunners
p2447
aVblues
p2448
aVhighbury
p2449
ag12
(g16
S'x\x17\x88\xe9\x05\xdej@'
p2450
tp2451
Rp2452
VSat Sep 29 08:28:23 +0000 2012
p2453
VSat Sep 29 12:52:52 +0000 2012
p2454
tp2455
a((lp2456
Varsenal
p2457
aVchelsea
p2458
aVgame
p2459
aVstadium
p2460
aVemirates
p2461
aVwatch
p2462
aVfans
p2463
aVblues
p2464
aVgunners
p2465
aVhighbury
p2466
ag12
(g16
S'\x83g\xabT\x15fm@'
p2467
tp2468
Rp2469
VSat Sep 29 09:32:10 +0000 2012
p2470
VSat Sep 29 13:42:40 +0000 2012
p2471
tp2472
a((lp2473
Varsenal
p2474
aVchelsea
p2475
aVgame
p2476
aVstadium
p2477
aVemirates
p2478
aVwatch
p2479
aVfans
p2480
aVblues
p2481
aVgunners
p2482
aVhighbury
p2483
ag12
(g16
S'\x1b\x92eS\xcc\xefl@'
p2484
tp2485
Rp2486
VSat Sep 29 10:26:57 +0000 2012
p2487
VSat Sep 29 14:37:00 +0000 2012
p2488
tp2489
a((lp2490
Varsenal
p2491
aVchelsea
p2492
aVgame
p2493
aVstadium
p2494
aVemirates
p2495
aVwembley
p2496
aVfans
p2497
aVblues
p2498
aVgunners
p2499
aVhighbury
p2500
ag12
(g16
S'z\x0e\x1fE\x10\xa7f@'
p2501
tp2502
Rp2503
VSat Sep 29 11:15:59 +0000 2012
p2504
VSat Sep 29 15:31:47 +0000 2012
p2505
tp2506
a((lp2507
Varsenal
p2508
aVchelsea
p2509
aVgame
p2510
aVwere
p2511
aVthan
p2512
aVwatching
p2513
aVstadium
p2514
aVgoal
p2515
aVfans
p2516
aVemirates
p2517
ag12
(g16
S'`\x89\xadLF\xd2W@'
p2518
tp2519
Rp2520
VSat Sep 29 12:05:36 +0000 2012
p2521
VSat Sep 29 16:22:53 +0000 2012
p2522
tp2523
a((lp2524
Vneed
p2525
aVarsenal
p2526
aVchelsea
p2527
aVgame
p2528
aVonly
p2529
aVwere
p2530
aVteam
p2531
aVstadium
p2532
aVfans
p2533
aVemirates
p2534
ag12
(g16
S'\x7f\xfe\x8c\xa3\xa5hR@'
p2535
tp2536
Rp2537
VSat Sep 29 12:52:54 +0000 2012
p2538
VSat Sep 29 17:09:30 +0000 2012
p2539
tp2540
a((lp2541
Vhaha
p2542
aVgame
p2543
aVthem
p2544
aVwork
p2545
aVdown
p2546
aVcoming
p2547
aVweek
p2548
aVwait
p2549
aVyear
p2550
aVweekend
p2551
ag12
(g16
S'\xdauEc\xc9\xc9J@'
p2552
tp2553
Rp2554
VSat Sep 29 13:42:40 +0000 2012
p2555
VSat Sep 29 17:53:07 +0000 2012
p2556
tp2557
a((lp2558
Vspurs
p2559
aVcoys
p2560
aVgreat
p2561
aVgame
p2562
aVdone
p2563
aVfucking
p2564
aVunited
p2565
aVgoal
p2566
aVtrafford
p2567
aVthfc
p2568
ag12
(g16
S'x\xac\x03b\x03tQ@'
p2569
tp2570
Rp2571
VSat Sep 29 14:37:00 +0000 2012
p2572
VSat Sep 29 18:34:58 +0000 2012
p2573
tp2574
a((lp2575
Vspurs
p2576
aVcoys
p2577
aVgreat
p2578
aVgame
p2579
aVfirst
p2580
aVdone
p2581
aVunited
p2582
aVhalf
p2583
aVtrafford
p2584
aVthfc
p2585
ag12
(g16
S'+\xc8\xe3\x87\r\xebU@'
p2586
tp2587
Rp2588
VSat Sep 29 15:31:48 +0000 2012
p2589
VSat Sep 29 19:21:06 +0000 2012
p2590
tp2591
a((lp2592
Vspurs
p2593
aVcoys
p2594
aVgreat
p2595
aVgame
p2596
aVdone
p2597
aVfirst
p2598
aVunited
p2599
aVfans
p2600
aVtrafford
p2601
aVthfc
p2602
ag12
(g16
S'\xcf\xdcU\t\xc01W@'
p2603
tp2604
Rp2605
VSat Sep 29 16:22:54 +0000 2012
p2606
VSat Sep 29 20:02:49 +0000 2012
p2607
tp2608
a((lp2609
Vspurs
p2610
aVgreat
p2611
aVcoys
p2612
aVgame
p2613
aVdone
p2614
aVfirst
p2615
aVunited
p2616
aVhalf
p2617
aVtrafford
p2618
aVthfc
p2619
ag12
(g16
S'\xa69\xef\xc3\xf5\xcbS@'
p2620
tp2621
Rp2622
VSat Sep 29 17:09:32 +0000 2012
p2623
VSat Sep 29 20:46:52 +0000 2012
p2624
tp2625
a((lp2626
Vxfactor
p2627
aVnight
p2628
aVwatching
p2629
aVonly
p2630
aVnext
p2631
aVamazing
p2632
aVgame
p2633
aVafter
p2634
aVhaving
p2635
aVyear
p2636
ag12
(g16
S'H\xfa\xe8\x02\x07\x84L@'
p2637
tp2638
Rp2639
VSat Sep 29 17:53:08 +0000 2012
p2640
VSat Sep 29 21:34:57 +0000 2012
p2641
tp2642
a((lp2643
Vxfactor
p2644
aVgreat
p2645
aVonly
p2646
aVwatching
p2647
aVover
p2648
aVlife
p2649
aVyear
p2650
aVwait
p2651
aVweek
p2652
aVsaturday
p2653
ag12
(g16
S'\xac\x8fg\xdc\x1a\x81N@'
p2654
tp2655
Rp2656
VSat Sep 29 18:34:59 +0000 2012
p2657
VSat Sep 29 22:21:51 +0000 2012
p2658
tp2659
a((lp2660
Vnight
p2661
aVxfactor
p2662
aVhaha
p2663
aVthem
p2664
aVonly
p2665
aVwatching
p2666
aVstill
p2667
aVnext
p2668
aVever
p2669
aVseen
p2670
ag12
(g16
S'\xf5\xa6\xd1\xe2\x96\x8bM@'
p2671
tp2672
Rp2673
VSat Sep 29 19:21:07 +0000 2012
p2674
VSat Sep 29 23:25:26 +0000 2012
p2675
tp2676
a((lp2677
Vnight
p2678
aVyeah
p2679
aVtomorrow
p2680
aVgreat
p2681
aVwatching
p2682
aVi've
p2683
aVbest
p2684
aVgonna
p2685
aVwork
p2686
aVsaturday
p2687
ag12
(g16
S'\xcat\x17VMRP@'
p2688
tp2689
Rp2690
VSat Sep 29 20:02:49 +0000 2012
p2691
VSun Sep 30 00:57:15 +0000 2012
p2692
tp2693
a((lp2694
Vnight
p2695
aVhaha
p2696
aVstill
p2697
aVtomorrow
p2698
aVgreat
p2699
aVwatching
p2700
aVwork
p2701
aVafter
p2702
aVever
p2703
aVsaturday
p2704
ag12
(g16
S'c\xa0\xc0\x19H\xd8P@'
p2705
tp2706
Rp2707
VSat Sep 29 20:46:53 +0000 2012
p2708
VSun Sep 30 06:19:12 +0000 2012
p2709
tp2710
a((lp2711
Vfollow
p2712
aVonly
p2713
aVplease
p2714
aVyou're
p2715
aVtell
p2716
aVokay
p2717
aVforever
p2718
aVdirectioner
p2719
aVpido
p2720
aVrespond
p2721
ag12
(g16
S'v,\x19\xdc\xff{]@'
p2722
tp2723
Rp2724
VSat Sep 29 21:34:58 +0000 2012
p2725
VSun Sep 30 08:40:19 +0000 2012
p2726
tp2727
a((lp2728
Vfollow
p2729
aVplease
p2730
aVtweet
p2731
aVbabe
p2732
aVharry
p2733
aVforever
p2734
aVdirectioner
p2735
aVhola
p2736
aVpido
p2737
aValma
p2738
ag12
(g16
S'\x15F\xa7\xa9F\xe6a@'
p2739
tp2740
Rp2741
VSat Sep 29 22:21:54 +0000 2012
p2742
VSun Sep 30 09:52:11 +0000 2012
p2743
tp2744
a((lp2745
Vfollow
p2746
aVplease
p2747
aVtweet
p2748
aVbabe
p2749
aVharry
p2750
aVforever
p2751
aVdirectioner
p2752
aVhola
p2753
aVpido
p2754
aValma
p2755
ag12
(g16
S'\xb1P<\x1b}\x97a@'
p2756
tp2757
Rp2758
VSat Sep 29 23:25:27 +0000 2012
p2759
VSun Sep 30 10:52:18 +0000 2012
p2760
tp2761
a((lp2762
Vnight
p2763
aVtomorrow
p2764
aVfree
p2765
aVlive
p2766
aVmusic
p2767
aVevent
p2768
aVborough
p2769
aVexhibitions
p2770
aVlewisham
p2771
aVblues
p2772
ag12
(g16
S'\xb2G\x1e\x88.8b@'
p2773
tp2774
Rp2775
VSun Sep 30 00:57:24 +0000 2012
p2776
VSun Sep 30 11:49:25 +0000 2012
p2777
tp2778
a((lp2779
Vnight
p2780
aVtomorrow
p2781
aVfree
p2782
aVlive
p2783
aVmusic
p2784
aVevent
p2785
aVborough
p2786
aVblues
p2787
aVexhibitions
p2788
aVlewisham
p2789
ag12
(g16
S'\xf1D\x82i\x96!d@'
p2790
tp2791
Rp2792
VSun Sep 30 06:19:13 +0000 2012
p2793
VSun Sep 30 12:45:06 +0000 2012
p2794
tp2795
a((lp2796
Vnight
p2797
aVneed
p2798
aVwant
p2799
aVsunday
p2800
aVwork
p2801
aVstill
p2802
aVonly
p2803
aVmake
p2804
aVthem
p2805
aVfeel
p2806
ag12
(g16
S't\xc1;\xd6\xd2\xa9F@'
p2807
tp2808
Rp2809
VSun Sep 30 08:40:22 +0000 2012
p2810
VSun Sep 30 13:40:08 +0000 2012
p2811
tp2812
a((lp2813
Vnight
p2814
aVneed
p2815
aVwant
p2816
aVwork
p2817
aVstill
p2818
aVonly
p2819
aVgreat
p2820
aVyeah
p2821
aVeven
p2822
aVfeel
p2823
ag12
(g16
S'\xad\xb5\xca \xeb\xd3E@'
p2824
tp2825
Rp2826
VSun Sep 30 09:52:14 +0000 2012
p2827
VSun Sep 30 14:37:43 +0000 2012
p2828
tp2829
a((lp2830
Vneed
p2831
aVwant
p2832
aVstill
p2833
aVyeah
p2834
aVmake
p2835
aVfeel
p2836
aVi've
p2837
aVeven
p2838
aVafter
p2839
aVthough
p2840
ag12
(g16
S'\x17\x1d\x12\t\xf3\x80F@'
p2841
tp2842
Rp2843
VSun Sep 30 10:52:19 +0000 2012
p2844
VSun Sep 30 15:30:32 +0000 2012
p2845
tp2846
a((lp2847
Vnight
p2848
aVneed
p2849
aVwork
p2850
aVgreat
p2851
aVyeah
p2852
aVmake
p2853
aVi've
p2854
aVeven
p2855
aVafter
p2856
aVweek
p2857
ag12
(g16
S'Tf\x07.9\xa3E@'
p2858
tp2859
Rp2860
VSun Sep 30 11:49:25 +0000 2012
p2861
VSun Sep 30 16:23:57 +0000 2012
p2862
tp2863
a((lp2864
Vneed
p2865
aVwant
p2866
aVwork
p2867
aVsunday
p2868
aVyeah
p2869
aVmake
p2870
aVi've
p2871
aVagain
p2872
aVeven
p2873
aVafter
p2874
ag12
(g16
S'\n\xd4k6\x03\xccG@'
p2875
tp2876
Rp2877
VSun Sep 30 12:45:08 +0000 2012
p2878
VSun Sep 30 17:10:27 +0000 2012
p2879
tp2880
a((lp2881
Vnight
p2882
aVsunday
p2883
aVroast
p2884
aVdinner
p2885
aVmusic
p2886
aVlive
p2887
aVfree
p2888
aVevent
p2889
aVunsigned
p2890
aVsugarfoot
p2891
ag12
(g16
S'\x055\xe2K6\x98P@'
p2892
tp2893
Rp2894
VSun Sep 30 13:40:10 +0000 2012
p2895
VSun Sep 30 17:56:19 +0000 2012
p2896
tp2897
a((lp2898
Vneed
p2899
aVwant
p2900
aVfollow
p2901
aVplease
p2902
aVagain
p2903
aVsuspended
p2904
aVdoesnt
p2905
aVspam
p2906
aVcoursework
p2907
aVincase
p2908
ag12
(g16
S'e0\xdf\xd8$2P@'
p2909
tp2910
Rp2911
VSun Sep 30 14:37:45 +0000 2012
p2912
VSun Sep 30 18:39:30 +0000 2012
p2913
tp2914
a((lp2915
Vxfactor
p2916
aVwant
p2917
aVneed
p2918
aVplease
p2919
aVthem
p2920
aVfollow
p2921
aVagain
p2922
aVnever
p2923
aVthrough
p2924
aVsuspended
p2925
ag12
(g16
S'\x1a\xb6\xe7\xe1\xcc\x00P@'
p2926
tp2927
Rp2928
VSun Sep 30 15:30:33 +0000 2012
p2929
VSun Sep 30 19:11:02 +0000 2012
p2930
tp2931
a((lp2932
Vxfactor
p2933
aVthrough
p2934
aVover
p2935
aVfucking
p2936
aVrylan
p2937
aVshould
p2938
aVlouis
p2939
aVnicole
p2940
aVjoke
p2941
aVjake
p2942
ag12
(g16
S'[\xaf\xbe/\x89pa@'
p2943
tp2944
Rp2945
VSun Sep 30 16:24:00 +0000 2012
p2946
VSun Sep 30 19:34:11 +0000 2012
p2947
tp2948
a((lp2949
Vxfactor
p2950
aVthrough
p2951
aVrylan
p2952
aVover
p2953
aVshould
p2954
aVnicole
p2955
aVlouis
p2956
aVlive
p2957
aVjake
p2958
aVshows
p2959
ag12
(g16
S'\xfc:\x07*v\x0ee@'
p2960
tp2961
Rp2962
VSun Sep 30 17:10:28 +0000 2012
p2963
VSun Sep 30 20:02:49 +0000 2012
p2964
tp2965
a((lp2966
Vxfactor
p2967
aVthrough
p2968
aVover
p2969
aVrylan
p2970
aVwatching
p2971
aVnicole
p2972
aVlouis
p2973
aVlive
p2974
aVjake
p2975
aVshows
p2976
ag12
(g16
S'$\xeb\xe5\xed\xe9\xc1e@'
p2977
tp2978
Rp2979
VSun Sep 30 17:56:19 +0000 2012
p2980
VSun Sep 30 20:36:12 +0000 2012
p2981
tp2982
a((lp2983
Vxfactor
p2984
aVthrough
p2985
aVwatching
p2986
aVrylan
p2987
aVover
p2988
aVnicole
p2989
aVlouis
p2990
aVlive
p2991
aVjake
p2992
aVshows
p2993
ag12
(g16
S'\x067l\xfd \x7ff@'
p2994
tp2995
Rp2996
VSun Sep 30 18:39:32 +0000 2012
p2997
VSun Sep 30 21:09:42 +0000 2012
p2998
tp2999
a((lp3000
Vxfactor
p3001
aVthrough
p3002
aVwatching
p3003
aVrylan
p3004
aVover
p3005
aVnicole
p3006
aVlive
p3007
aVjake
p3008
aVadam
p3009
aVshows
p3010
ag12
(g16
S'\xd8\x85.\xc9K\xc9c@'
p3011
tp3012
Rp3013
VSun Sep 30 19:11:02 +0000 2012
p3014
VSun Sep 30 21:39:45 +0000 2012
p3015
tp3016
a((lp3017
Vrydercup
p3018
aVeurope
p3019
aVrydercup2012
p3020
aVgolf
p3021
aVgreat
p3022
aVteameurope
p3023
aVryder
p3024
aVrose
p3025
aVgoeurope
p3026
aVjustin
p3027
ag12
(g16
S'\xa45\xa4\x07\xe1\x07d@'
p3028
tp3029
Rp3030
VSun Sep 30 19:34:11 +0000 2012
p3031
VSun Sep 30 22:15:27 +0000 2012
p3032
tp3033
a((lp3034
Vrydercup
p3035
aVeurope
p3036
aVrydercup2012
p3037
aVgolf
p3038
aVteameurope
p3039
aVryder
p3040
aVamazing
p3041
aVdone
p3042
aVgreat
p3043
aVcomeback
p3044
ag12
(g16
S'\xe4\xc9\x02\xe1\x98kn@'
p3045
tp3046
Rp3047
VSun Sep 30 20:02:49 +0000 2012
p3048
VSun Sep 30 22:55:28 +0000 2012
p3049
tp3050
a((lp3051
Vrydercup
p3052
aVeurope
p3053
aVgolf
p3054
aVrydercup2012
p3055
aVryder
p3056
aVamazing
p3057
aVteameurope
p3058
aVdone
p3059
aVseve
p3060
aVcomeback
p3061
ag12
(g16
S'~\xb5\xe2#\xf85l@'
p3062
tp3063
Rp3064
VSun Sep 30 20:36:13 +0000 2012
p3065
VMon Oct 01 00:25:46 +0000 2012
p3066
tp3067
a((lp3068
Vrydercup
p3069
aVeurope
p3070
aVgolf
p3071
aVrydercup2012
p3072
aVryder
p3073
aVamazing
p3074
aVdone
p3075
aVteameurope
p3076
aVseve
p3077
aVcomeback
p3078
ag12
(g16
S'\xd9(\x15vZ\xbei@'
p3079
tp3080
Rp3081
VSun Sep 30 21:09:42 +0000 2012
p3082
VMon Oct 01 06:16:35 +0000 2012
p3083
tp3084
a((lp3085
Vrydercup
p3086
aVeurope
p3087
aVgolf
p3088
aVrydercup2012
p3089
aVdone
p3090
aVryder
p3091
aVteameurope
p3092
aVseve
p3093
aVteam
p3094
aVcomeback
p3095
ag12
(g16
S'\x969M\x9f\x13\xebg@'
p3096
tp3097
Rp3098
VSun Sep 30 21:39:46 +0000 2012
p3099
VMon Oct 01 07:46:19 +0000 2012
p3100
tp3101
a((lp3102
Vrydercup
p3103
aVeurope
p3104
aVgolf
p3105
aVdone
p3106
aVryder
p3107
aVrydercup2012
p3108
aVteam
p3109
aVseve
p3110
aVteameurope
p3111
aVcomeback
p3112
ag12
(g16
S'\xcc\x1e\x9fX\x0f\x82a@'
p3113
tp3114
Rp3115
VSun Sep 30 22:15:28 +0000 2012
p3116
VMon Oct 01 09:04:03 +0000 2012
p3117
tp3118
a((lp3119
Vfirst
p3120
aVhappy
p3121
aVoctober
p3122
aVmonth
p3123
aVyear
p3124
aVbirthday
p3125
aVpunch
p3126
aVpinch
p3127
aVreturns
p3128
aVreturn
p3129
ag12
(g16
S'\n\xff\xb2\x1dP~f@'
p3130
tp3131
Rp3132
VSun Sep 30 22:55:33 +0000 2012
p3133
VMon Oct 01 10:19:27 +0000 2012
p3134
tp3135
a((lp3136
Vfirst
p3137
aVhappy
p3138
aVoctober
p3139
aVmonth
p3140
aVbirthday
p3141
aVyear
p3142
aVpunch
p3143
aVpinch
p3144
aVlecture
p3145
aVreturns
p3146
ag12
(g16
S'\x06c?\xa5L\x0bc@'
p3147
tp3148
Rp3149
VMon Oct 01 00:25:48 +0000 2012
p3150
VMon Oct 01 11:33:08 +0000 2012
p3151
tp3152
a((lp3153
Vhappy
p3154
aVbirthday
p3155
aVcheck
p3156
aVpics
p3157
aVblog
p3158
aVnathan
p3159
aVmaxmonday
p3160
aVexclusive
p3161
aVtickling
p3162
aVmax's
p3163
ag12
(g16
S'm\xb3\x08\x80\xb4\xcbl@'
p3164
tp3165
Rp3166
VMon Oct 01 06:16:40 +0000 2012
p3167
VMon Oct 01 12:49:38 +0000 2012
p3168
tp3169
a((lp3170
Vhappy
p3171
aVbirthday
p3172
aVcheck
p3173
aVpics
p3174
aVblog
p3175
aVnathan
p3176
aVmaxmonday
p3177
aVtickling
p3178
aVmax's
p3179
aVexclusive
p3180
ag12
(g16
S'\xecA\xa9\xdc\xb2\x8fl@'
p3181
tp3182
Rp3183
VMon Oct 01 07:46:20 +0000 2012
p3184
VMon Oct 01 14:04:26 +0000 2012
p3185
tp3186
a((lp3187
Vneed
p3188
aVwork
p3189
aVhaha
p3190
aVyeah
p3191
aVstill
p3192
aVi've
p3193
aVthat's
p3194
aVthem
p3195
aVweek
p3196
aVdone
p3197
ag12
(g16
S'=\xbc\x83\xf7j\xffH@'
p3198
tp3199
Rp3200
VMon Oct 01 09:04:04 +0000 2012
p3201
VMon Oct 01 15:14:43 +0000 2012
p3202
tp3203
a((lp3204
Vhappy
p3205
aVbirthday
p3206
aVcheck
p3207
aVblog
p3208
aVpics
p3209
aVexclusive
p3210
aVnathan
p3211
aVmaxmonday
p3212
aVtickling
p3213
aVmax's
p3214
ag12
(g16
S'\x01\xf8Q\xb4\xf5\x83l@'
p3215
tp3216
Rp3217
VMon Oct 01 10:19:27 +0000 2012
p3218
VMon Oct 01 16:15:22 +0000 2012
p3219
tp3220
a((lp3221
Vneed
p3222
aVhaha
p3223
aVwork
p3224
aVwant
p3225
aVyeah
p3226
aVstill
p3227
aVthem
p3228
aVi've
p3229
aVeven
p3230
aVlife
p3231
ag12
(g16
S'\x1a\xf6\x8e*izF@'
p3232
tp3233
Rp3234
VMon Oct 01 11:33:10 +0000 2012
p3235
VMon Oct 01 17:05:23 +0000 2012
p3236
tp3237
a((lp3238
Vhaha
p3239
aVwant
p3240
aVyeah
p3241
aVmake
p3242
aVi've
p3243
aVthat's
p3244
aVthan
p3245
aVhope
p3246
aVagain
p3247
aVfeel
p3248
ag12
(g16
S'\xba\xaf\xcf\xb3\xba\xeeJ@'
p3249
tp3250
Rp3251
VMon Oct 01 12:49:39 +0000 2012
p3252
VMon Oct 01 17:52:10 +0000 2012
p3253
tp3254
a((lp3255
Vneed
p3256
aVwork
p3257
aVyeah
p3258
aVonly
p3259
aVthem
p3260
aVmake
p3261
aVright
p3262
aVlook
p3263
aVlife
p3264
aVdone
p3265
ag12
(g16
S'\x84\xa0\xfb\xd49cF@'
p3266
tp3267
Rp3268
VMon Oct 01 14:04:28 +0000 2012
p3269
VMon Oct 01 18:34:55 +0000 2012
p3270
tp3271
a((lp3272
Vneed
p3273
aVwant
p3274
aVyeah
p3275
aVfollow
p3276
aVmake
p3277
aVnever
p3278
aVbest
p3279
aVi've
p3280
aVagain
p3281
aVsomeone
p3282
ag12
(g16
S'\x92F? \n\x12I@'
p3283
tp3284
Rp3285
VMon Oct 01 15:14:45 +0000 2012
p3286
VMon Oct 01 19:14:56 +0000 2012
p3287
tp3288
a((lp3289
Vhaha
p3290
aVwant
p3291
aVthem
p3292
aVnever
p3293
aVmake
p3294
aVever
p3295
aVfeel
p3296
aVbest
p3297
aVthan
p3298
aVi've
p3299
ag12
(g16
S'\xab\xcc\x84\x08\xd6\x8eJ@'
p3300
tp3301
Rp3302
VMon Oct 01 16:15:23 +0000 2012
p3303
VMon Oct 01 19:54:58 +0000 2012
p3304
tp3305
a((lp3306
Vhaha
p3307
aVneed
p3308
aVwant
p3309
aVthem
p3310
aVthat's
p3311
aVtomorrow
p3312
aVfeel
p3313
aVmake
p3314
aVever
p3315
aVthan
p3316
ag12
(g16
S'ev\x9d\\\xd6vJ@'
p3317
tp3318
Rp3319
VMon Oct 01 17:05:23 +0000 2012
p3320
VMon Oct 01 20:30:56 +0000 2012
p3321
tp3322
a((lp3323
Vhaha
p3324
aVneed
p3325
aVwant
p3326
aVyeah
p3327
aVthat's
p3328
aVthem
p3329
aVtomorrow
p3330
aVfeel
p3331
aVi've
p3332
aVever
p3333
ag12
(g16
S'n\xcfG\xbe\xb6\xccI@'
p3334
tp3335
Rp3336
VMon Oct 01 17:52:13 +0000 2012
p3337
VMon Oct 01 21:05:43 +0000 2012
p3338
tp3339
a((lp3340
Vhaha
p3341
aVyeah
p3342
aVwant
p3343
aVthem
p3344
aVthat's
p3345
aVnever
p3346
aVbest
p3347
aVi've
p3348
aVagain
p3349
aVever
p3350
ag12
(g16
S'h\xc3\xa2\x95K\xdaL@'
p3351
tp3352
Rp3353
VMon Oct 01 18:34:57 +0000 2012
p3354
VMon Oct 01 21:45:30 +0000 2012
p3355
tp3356
a((lp3357
Vhaha
p3358
aVneed
p3359
aVyeah
p3360
aVwant
p3361
aVthem
p3362
aVthat's
p3363
aVright
p3364
aVonly
p3365
aVi've
p3366
aVfeel
p3367
ag12
(g16
S'<\xe4\xc6)(\xc2K@'
p3368
tp3369
Rp3370
VMon Oct 01 19:14:57 +0000 2012
p3371
VMon Oct 01 22:31:33 +0000 2012
p3372
tp3373
a((lp3374
Vplease
p3375
aVinto
p3376
aVseen
p3377
aVelse
p3378
aVmissing
p3379
aVschool
p3380
aVpolice
p3381
aVshouting
p3382
aVtomorow
p3383
aVapril
p3384
ag12
(g16
S'IN\xcf\xc8\x1c\x0eV@'
p3385
tp3386
Rp3387
VMon Oct 01 19:54:58 +0000 2012
p3388
VMon Oct 01 23:45:53 +0000 2012
p3389
tp3390
a((lp3391
Vhaha
p3392
aVnight
p3393
aVyeah
p3394
aVtomorrow
p3395
aVwork
p3396
aVthem
p3397
aVi've
p3398
aVever
p3399
aVthing
p3400
aVstart
p3401
ag12
(g16
S'\xdeWO\x01\xe66J@'
p3402
tp3403
Rp3404
VMon Oct 01 20:30:56 +0000 2012
p3405
VTue Oct 02 05:26:12 +0000 2012
p3406
tp3407
a((lp3408
Vnight
p3409
aVhaha
p3410
aVneed
p3411
aVwant
p3412
aVwork
p3413
aVstill
p3414
aVyeah
p3415
aVtomorrow
p3416
aVonly
p3417
aVafter
p3418
ag12
(g16
S'\xde\x821)\xb0\xb9H@'
p3419
tp3420
Rp3421
VMon Oct 01 21:05:44 +0000 2012
p3422
VTue Oct 02 07:36:24 +0000 2012
p3423
tp3424
a((lp3425
Vnight
p3426
aVwork
p3427
aVneed
p3428
aVhaha
p3429
aVstill
p3430
aVyeah
p3431
aVafter
p3432
aVearly
p3433
aVthing
p3434
aVhours
p3435
ag12
(g16
S"\xee\xb1\x16\xeeT'I@"
p3436
tp3437
Rp3438
VMon Oct 01 21:45:32 +0000 2012
p3439
VTue Oct 02 08:59:41 +0000 2012
p3440
tp3441
a((lp3442
Vwork
p3443
aVneed
p3444
aVnight
p3445
aVstill
p3446
aVonly
p3447
aVnext
p3448
aVfirst
p3449
aVafter
p3450
aVearly
p3451
aVweek
p3452
ag12
(g16
S't\xfc\xe2W\xe1`I@'
p3453
tp3454
Rp3455
VMon Oct 01 22:31:34 +0000 2012
p3456
VTue Oct 02 10:15:25 +0000 2012
p3457
tp3458
a((lp3459
Vfree
p3460
aVtomorrow
p3461
aVlive
p3462
aVevent
p3463
aVmusic
p3464
aVjohn
p3465
aVexhibitions
p3466
aVproperty
p3467
aVberger
p3468
aVarchives
p3469
ag12
(g16
S'\x14\x9a\x05Oz\x9d]@'
p3470
tp3471
Rp3472
VMon Oct 01 23:45:55 +0000 2012
p3473
VTue Oct 02 11:26:01 +0000 2012
p3474
tp3475
a((lp3476
Vfree
p3477
aVevent
p3478
aVtomorrow
p3479
aVlive
p3480
aVmusic
p3481
aVcomedy
p3482
aVjohn
p3483
aVexhibitions
p3484
aVfamous
p3485
aVlewis
p3486
ag12
(g16
S'\x9b1\xae\x9dO\x15b@'
p3487
tp3488
Rp3489
VTue Oct 02 05:26:17 +0000 2012
p3490
VTue Oct 02 12:32:19 +0000 2012
p3491
tp3492
a((lp3493
Vfree
p3494
aVtomorrow
p3495
aVevent
p3496
aVclub
p3497
aVuntil
p3498
aVcomedy
p3499
aVfamous
p3500
aVlewis
p3501
aVcomics
p3502
aVschaffer
p3503
ag12
(g16
S'$\xf3\xa8\xb4M\x91_@'
p3504
tp3505
Rp3506
VTue Oct 02 07:36:24 +0000 2012
p3507
VTue Oct 02 13:36:45 +0000 2012
p3508
tp3509
a((lp3510
Vthanks
p3511
aVwork
p3512
aVneed
p3513
aVhaha
p3514
aVyeah
p3515
aVvery
p3516
aVhope
p3517
aVnight
p3518
aVdone
p3519
aVthat's
p3520
ag12
(g16
S'\xcaiL\x95\x8d\xf8G@'
p3521
tp3522
Rp3523
VTue Oct 02 08:59:43 +0000 2012
p3524
VTue Oct 02 14:41:33 +0000 2012
p3525
tp3526
a((lp3527
Vneed
p3528
aVwork
p3529
aVhaha
p3530
aVwant
p3531
aVmake
p3532
aVtake
p3533
aVlong
p3534
aVdoes
p3535
aVrecord
p3536
aVcurious
p3537
ag12
(g16
S'R\x8dQ)\xba^Y@'
p3538
tp3539
Rp3540
VTue Oct 02 10:15:25 +0000 2012
p3541
VTue Oct 02 15:42:23 +0000 2012
p3542
tp3543
a((lp3544
Vneed
p3545
aVhaha
p3546
aVwant
p3547
aVmake
p3548
aVlook
p3549
aVtake
p3550
aVlong
p3551
aVdoes
p3552
aVrecord
p3553
aVcurious
p3554
ag12
(g16
S'L\x0e\xaa \xf7E\\@'
p3555
tp3556
Rp3557
VTue Oct 02 11:26:02 +0000 2012
p3558
VTue Oct 02 16:37:30 +0000 2012
p3559
tp3560
a((lp3561
Vhaha
p3562
aVwant
p3563
aVwork
p3564
aVmake
p3565
aVlook
p3566
aVtake
p3567
aVlong
p3568
aVdoes
p3569
aVrecord
p3570
aVcurious
p3571
ag12
(g16
S'\x92\xdbqd\x14\xd5X@'
p3572
tp3573
Rp3574
VTue Oct 02 12:32:19 +0000 2012
p3575
VTue Oct 02 17:24:57 +0000 2012
p3576
tp3577
a((lp3578
Vwant
p3579
aVmake
p3580
aVplease
p3581
aVlife
p3582
aVtake
p3583
aVlook
p3584
aVlong
p3585
aVdoes
p3586
aVrecord
p3587
aVcurious
p3588
ag12
(g16
S'^\xebl\xdbx\xfdS@'
p3589
tp3590
Rp3591
VTue Oct 02 13:36:47 +0000 2012
p3592
VTue Oct 02 18:06:50 +0000 2012
p3593
tp3594
a((lp3595
Vneed
p3596
aVonly
p3597
aVthem
p3598
aVnever
p3599
aVi've
p3600
aVbest
p3601
aVthing
p3602
aVever
p3603
aVmost
p3604
aVseen
p3605
ag12
(g16
S'\x06EG\xfc\x0f<K@'
p3606
tp3607
Rp3608
VTue Oct 02 14:41:33 +0000 2012
p3609
VTue Oct 02 18:48:16 +0000 2012
p3610
tp3611
a((lp3612
Vonly
p3613
aVthem
p3614
aVnever
p3615
aVi've
p3616
aVbest
p3617
aVfirst
p3618
aVever
p3619
aVthing
p3620
aVseen
p3621
aVmost
p3622
ag12
(g16
S'2LZN\xe5FL@'
p3623
tp3624
Rp3625
VTue Oct 02 15:42:24 +0000 2012
p3626
VTue Oct 02 19:25:41 +0000 2012
p3627
tp3628
a((lp3629
Vneed
p3630
aVplease
p3631
aVnext
p3632
aVdoing
p3633
aVyear
p3634
aVweek
p3635
aVmarathon
p3636
aVhuntingtons
p3637
aVadidas
p3638
aVteamsimran18
p3639
ag12
(g16
S'\x8d\x93\x93<;\xa0i@'
p3640
tp3641
Rp3642
VTue Oct 02 16:37:30 +0000 2012
p3643
VTue Oct 02 20:00:15 +0000 2012
p3644
tp3645
a((lp3646
Vhaha
p3647
aVstill
p3648
aVnext
p3649
aVdoing
p3650
aVyear
p3651
aVweek
p3652
aVmarathon
p3653
aVhuntingtons
p3654
aVadidas
p3655
aVteamsimran18
p3656
ag12
(g16
S'\xd6&8\x1e\x1b\xabi@'
p3657
tp3658
Rp3659
VTue Oct 02 17:25:00 +0000 2012
p3660
VTue Oct 02 20:33:50 +0000 2012
p3661
tp3662
a((lp3663
Vhaha
p3664
aVgreat
p3665
aVdoing
p3666
aVnext
p3667
aVyear
p3668
aVweek
p3669
aVmarathon
p3670
aVhuntingtons
p3671
aVadidas
p3672
aVteamsimran18
p3673
ag12
(g16
S'\x1a\x00\x99[\x15\x91i@'
p3674
tp3675
Rp3676
VTue Oct 02 18:06:52 +0000 2012
p3677
VTue Oct 02 21:07:44 +0000 2012
p3678
tp3679
a((lp3680
Vthem
p3681
aVlook
p3682
aVmade
p3683
aVdoes
p3684
aVfriends
p3685
aVname
p3686
aVcause
p3687
aVloads
p3688
aVdeserve
p3689
aVlwwy
p3690
ag12
(g16
S'\x15\xf5\xb2\x8f\x8e!b@'
p3691
tp3692
Rp3693
VTue Oct 02 18:48:16 +0000 2012
p3694
VTue Oct 02 21:43:47 +0000 2012
p3695
tp3696
a((lp3697
Vhaha
p3698
aVyeah
p3699
aVnext
p3700
aVdoing
p3701
aVyear
p3702
aVweek
p3703
aVmarathon
p3704
aVhuntingtons
p3705
aVadidas
p3706
aVteamsimran18
p3707
ag12
(g16
S'\xa8b\xfe\xe3\x17\xeei@'
p3708
tp3709
Rp3710
VTue Oct 02 19:25:41 +0000 2012
p3711
VTue Oct 02 22:27:33 +0000 2012
p3712
tp3713
a((lp3714
Vhaha
p3715
aVnight
p3716
aVneed
p3717
aVwant
p3718
aVtomorrow
p3719
aVthem
p3720
aVyeah
p3721
aVthanks
p3722
aVstill
p3723
aVthat's
p3724
ag12
(g16
S'8\xaa\x8aDZ\xa4M@'
p3725
tp3726
Rp3727
VTue Oct 02 20:00:15 +0000 2012
p3728
VTue Oct 02 23:41:26 +0000 2012
p3729
tp3730
a((lp3731
Vnight
p3732
aVhaha
p3733
aVneed
p3734
aVtomorrow
p3735
aVyeah
p3736
aVwant
p3737
aVthem
p3738
aVthat's
p3739
aVonly
p3740
aVthough
p3741
ag12
(g16
S'\xc2\xef\xd1O\x95BK@'
p3742
tp3743
Rp3744
VTue Oct 02 20:33:51 +0000 2012
p3745
VWed Oct 03 05:36:51 +0000 2012
p3746
tp3747
a((lp3748
Vnight
p3749
aVhaha
p3750
aVneed
p3751
aVtomorrow
p3752
aVyeah
p3753
aVwork
p3754
aVthem
p3755
aVonly
p3756
aVthat's
p3757
aVearly
p3758
ag12
(g16
S'0\xc00\x97\xfc\xb0J@'
p3759
tp3760
Rp3761
VTue Oct 02 21:07:45 +0000 2012
p3762
VWed Oct 03 07:26:48 +0000 2012
p3763
tp3764
a((lp3765
Vnight
p3766
aVthanks
p3767
aVtomorrow
p3768
aVhope
p3769
aVgreat
p3770
aVhappy
p3771
aVbirthday
p3772
aVmate
p3773
aVsoon
p3774
aVlovely
p3775
ag12
(g16
S'0.\xe76MSY@'
p3776
tp3777
Rp3778
VTue Oct 02 21:43:48 +0000 2012
p3779
VWed Oct 03 08:45:07 +0000 2012
p3780
tp3781
a((lp3782
Vfollow
p3783
aVthanks
p3784
aVcould
p3785
aVplease
p3786
aVevery
p3787
aVfriday
p3788
aVlisten
p3789
aVretweet
p3790
aVteamfollowback
p3791
aVlebanon
p3792
ag12
(g16
S'o\xc3hP\xdf\x97T@'
p3793
tp3794
Rp3795
VTue Oct 02 22:27:39 +0000 2012
p3796
VWed Oct 03 10:02:26 +0000 2012
p3797
tp3798
a((lp3799
Vfollow
p3800
aVthanks
p3801
aVhope
p3802
aVgreat
p3803
aVhappy
p3804
aVbirthday
p3805
aVmate
p3806
aVsoon
p3807
aVlovely
p3808
aVoscar
p3809
ag12
(g16
S'\xba\xcf\xee\xff\x83\xfeZ@'
p3810
tp3811
Rp3812
VTue Oct 02 23:41:27 +0000 2012
p3813
VWed Oct 03 11:14:54 +0000 2012
p3814
tp3815
a((lp3816
Vthanks
p3817
aVgreat
p3818
aVhope
p3819
aVhappy
p3820
aVbirthday
p3821
aVvery
p3822
aVfollow
p3823
aVmate
p3824
aVsoon
p3825
aVlovely
p3826
ag12
(g16
S'\x94\xd7\xee\x98\t\x84\\@'
p3827
tp3828
Rp3829
VWed Oct 03 05:36:58 +0000 2012
p3830
VWed Oct 03 12:19:48 +0000 2012
p3831
tp3832
a((lp3833
Vfree
p3834
aVtomorrow
p3835
aVlive
p3836
aVevent
p3837
aVmusic
p3838
aVexhibitions
p3839
aVjohn
p3840
aVerica
p3841
aVshiozaki
p3842
aVanthropologist
p3843
ag12
(g16
S'Z\xfe\xe3}\t\xfac@'
p3844
tp3845
Rp3846
VWed Oct 03 07:26:48 +0000 2012
p3847
VWed Oct 03 13:24:32 +0000 2012
p3848
tp3849
a((lp3850
Vhaha
p3851
aVneed
p3852
aVwork
p3853
aVwant
p3854
aVonly
p3855
aVyeah
p3856
aVthat's
p3857
aVstill
p3858
aVtake
p3859
aVdoing
p3860
ag12
(g16
S't\xa1\xbaa\t\xb4G@'
p3861
tp3862
Rp3863
VWed Oct 03 08:45:09 +0000 2012
p3864
VWed Oct 03 14:34:36 +0000 2012
p3865
tp3866
a((lp3867
Vneed
p3868
aVwork
p3869
aVwant
p3870
aVthem
p3871
aVyeah
p3872
aVhere
p3873
aVover
p3874
aVmake
p3875
aVtake
p3876
aVthough
p3877
ag12
(g16
S'\xcc\x12\xf05\xfd\x12G@'
p3878
tp3879
Rp3880
VWed Oct 03 10:02:26 +0000 2012
p3881
VWed Oct 03 15:35:09 +0000 2012
p3882
tp3883
a((lp3884
Vhaha
p3885
aVneed
p3886
aVwork
p3887
aVyeah
p3888
aVwant
p3889
aVthanks
p3890
aVthem
p3891
aVthat's
p3892
aVmake
p3893
aVover
p3894
ag12
(g16
S"J\x1d\xb0'\xcd\xa1H@"
p3895
tp3896
Rp3897
VWed Oct 03 11:14:55 +0000 2012
p3898
VWed Oct 03 16:28:30 +0000 2012
p3899
tp3900
a((lp3901
Vhaha
p3902
aVneed
p3903
aVwork
p3904
aVyeah
p3905
aVwant
p3906
aVthanks
p3907
aVthem
p3908
aVthat's
p3909
aVover
p3910
aVtake
p3911
ag12
(g16
S'\xba\xfe=\x8c!LH@'
p3912
tp3913
Rp3914
VWed Oct 03 11:18:22 +0000 2012
p3915
VWed Oct 03 16:31:35 +0000 2012
p3916
tp3917
a.