(lp0
((lp1
Vhaha
p2
aVneed
p3
aVwork
p4
aVwant
p5
aVyeah
p6
aVstill
p7
aVthem
p8
aVnever
p9
aVeven
p10
aVthough
p11
acnumpy.core.multiarray
scalar
p12
(cnumpy
dtype
p13
(S'f8'
p14
I0
I1
tp15
Rp16
(I3
S'<'
p17
NNNI-1
I-1
I0
tp18
bS'4t0\xdb\x9cId@'
p19
tp20
Rp21
VTue Sep 25 15:49:40 +0000 2012
p22
VWed Sep 26 12:36:33 +0000 2012
p23
tp24
a((lp25
Vhaha
p26
aVneed
p27
aVwork
p28
aVwant
p29
aVyeah
p30
aVstill
p31
aVonly
p32
aVthem
p33
aVeven
p34
aVthough
p35
ag12
(g16
S'\xb5^\x07\x98\x93Bd@'
p36
tp37
Rp38
VTue Sep 25 15:58:27 +0000 2012
p39
VWed Sep 26 12:47:17 +0000 2012
p40
tp41
a((lp42
Vhaha
p43
aVneed
p44
aVwork
p45
aVwant
p46
aVyeah
p47
aVstill
p48
aVthem
p49
aVmake
p50
aVi've
p51
aVthough
p52
ag12
(g16
S'h\x85\x08\x7f\xc8Dd@'
p53
tp54
Rp55
VTue Sep 25 16:07:06 +0000 2012
p56
VWed Sep 26 12:58:52 +0000 2012
p57
tp58
a((lp59
Vhaha
p60
aVneed
p61
aVwork
p62
aVwant
p63
aVyeah
p64
aVstill
p65
aVthem
p66
aVnever
p67
aVeven
p68
aVthough
p69
ag12
(g16
S"\xdf'\xe4\x9b\xb5*d@"
p70
tp71
Rp72
VTue Sep 25 16:16:13 +0000 2012
p73
VWed Sep 26 13:10:32 +0000 2012
p74
tp75
a((lp76
Vhaha
p77
aVneed
p78
aVwork
p79
aVwant
p80
aVyeah
p81
aVstill
p82
aVthem
p83
aVnever
p84
aVeven
p85
aVthough
p86
ag12
(g16
S"L\xca\xd1\xd2#'d@"
p87
tp88
Rp89
VTue Sep 25 16:24:36 +0000 2012
p90
VWed Sep 26 13:21:10 +0000 2012
p91
tp92
a((lp93
Vhaha
p94
aVneed
p95
aVwork
p96
aVwant
p97
aVstill
p98
aVyeah
p99
aVthem
p100
aVi've
p101
aVeven
p102
aVthough
p103
ag12
(g16
S'T\xb1_I\xc2Zd@'
p104
tp105
Rp106
VTue Sep 25 16:33:21 +0000 2012
p107
VWed Sep 26 13:32:35 +0000 2012
p108
tp109
a((lp110
Vhaha
p111
aVneed
p112
aVwork
p113
aVwant
p114
aVyeah
p115
aVstill
p116
aVthem
p117
aVi've
p118
aVeven
p119
aVthough
p120
ag12
(g16
S"'\x8c\xfd:GVd@"
p121
tp122
Rp123
VTue Sep 25 16:41:30 +0000 2012
p124
VWed Sep 26 13:42:52 +0000 2012
p125
tp126
a((lp127
Vhaha
p128
aVneed
p129
aVwork
p130
aVwant
p131
aVyeah
p132
aVstill
p133
aVthem
p134
aVi've
p135
aVeven
p136
aVthough
p137
ag12
(g16
S'\xe8$6\x14\x84\x17d@'
p138
tp139
Rp140
VTue Sep 25 16:49:11 +0000 2012
p141
VWed Sep 26 13:54:12 +0000 2012
p142
tp143
a((lp144
Vhaha
p145
aVneed
p146
aVwork
p147
aVwant
p148
aVyeah
p149
aVstill
p150
aVthem
p151
aVnever
p152
aVeven
p153
aVthough
p154
ag12
(g16
S'@Q$\\r\x1dd@'
p155
tp156
Rp157
VTue Sep 25 16:56:47 +0000 2012
p158
VWed Sep 26 14:05:07 +0000 2012
p159
tp160
a((lp161
Vhaha
p162
aVneed
p163
aVwork
p164
aVwant
p165
aVyeah
p166
aVstill
p167
aVthem
p168
aVi've
p169
aVeven
p170
aVthough
p171
ag12
(g16
S'\x85>e\x0f\xca%d@'
p172
tp173
Rp174
VTue Sep 25 17:05:18 +0000 2012
p175
VWed Sep 26 14:16:06 +0000 2012
p176
tp177
a((lp178
Vhaha
p179
aVneed
p180
aVwork
p181
aVwant
p182
aVyeah
p183
aVstill
p184
aVthem
p185
aVeven
p186
aVnever
p187
aVthough
p188
ag12
(g16
S'Z\x1a\xbd+f%d@'
p189
tp190
Rp191
VTue Sep 25 17:13:49 +0000 2012
p192
VWed Sep 26 14:26:27 +0000 2012
p193
tp194
a((lp195
Vhaha
p196
aVneed
p197
aVwork
p198
aVwant
p199
aVyeah
p200
aVstill
p201
aVthem
p202
aVi've
p203
aVeven
p204
aVthough
p205
ag12
(g16
S'D\xdb\x96M&\x07d@'
p206
tp207
Rp208
VTue Sep 25 17:21:28 +0000 2012
p209
VWed Sep 26 14:37:12 +0000 2012
p210
tp211
a((lp212
Vhaha
p213
aVneed
p214
aVwork
p215
aVwant
p216
aVyeah
p217
aVstill
p218
aVthem
p219
aVi've
p220
aVeven
p221
aVthough
p222
ag12
(g16
S'X\x9dSEg\x1bd@'
p223
tp224
Rp225
VTue Sep 25 17:29:40 +0000 2012
p226
VWed Sep 26 14:48:21 +0000 2012
p227
tp228
a((lp229
Vhaha
p230
aVneed
p231
aVwork
p232
aVwant
p233
aVyeah
p234
aVstill
p235
aVthem
p236
aVi've
p237
aVeven
p238
aVthough
p239
ag12
(g16
S'H\xf3E\x91\x19#d@'
p240
tp241
Rp242
VTue Sep 25 17:37:48 +0000 2012
p243
VWed Sep 26 14:57:27 +0000 2012
p244
tp245
a((lp246
Vhaha
p247
aVneed
p248
aVwork
p249
aVwant
p250
aVonly
p251
aVyeah
p252
aVstill
p253
aVthem
p254
aVeven
p255
aVthough
p256
ag12
(g16
S'\x9c\xe1\xba\x02\x9f\x12d@'
p257
tp258
Rp259
VTue Sep 25 17:45:45 +0000 2012
p260
VWed Sep 26 15:07:12 +0000 2012
p261
tp262
a((lp263
Vhaha
p264
aVneed
p265
aVwork
p266
aVwant
p267
aVonly
p268
aVyeah
p269
aVstill
p270
aVthem
p271
aVeven
p272
aVthough
p273
ag12
(g16
S'^d\x0f\xfd\xf7\xfac@'
p274
tp275
Rp276
VTue Sep 25 17:53:13 +0000 2012
p277
VWed Sep 26 15:15:55 +0000 2012
p278
tp279
a((lp280
Vhaha
p281
aVneed
p282
aVwork
p283
aVwant
p284
aVyeah
p285
aVonly
p286
aVstill
p287
aVthem
p288
aVeven
p289
aVthough
p290
ag12
(g16
S'\x03\xe3\xb9o\\2d@'
p291
tp292
Rp293
VTue Sep 25 18:00:01 +0000 2012
p294
VWed Sep 26 15:24:54 +0000 2012
p295
tp296
a((lp297
Vhaha
p298
aVneed
p299
aVwork
p300
aVwant
p301
aVyeah
p302
aVonly
p303
aVthem
p304
aVstill
p305
aVeven
p306
aVthough
p307
ag12
(g16
S'\xed];\x81Uqd@'
p308
tp309
Rp310
VTue Sep 25 18:07:30 +0000 2012
p311
VWed Sep 26 15:34:14 +0000 2012
p312
tp313
a((lp314
Vhaha
p315
aVneed
p316
aVwork
p317
aVwant
p318
aVyeah
p319
aVthem
p320
aVstill
p321
aVmake
p322
aVeven
p323
aVthough
p324
ag12
(g16
S'\xa0hJ\x0cHcd@'
p325
tp326
Rp327
VTue Sep 25 18:14:36 +0000 2012
p328
VWed Sep 26 15:42:15 +0000 2012
p329
tp330
a((lp331
Vhaha
p332
aVneed
p333
aVwork
p334
aVwant
p335
aVyeah
p336
aVthem
p337
aVstill
p338
aVmake
p339
aVeven
p340
aVthough
p341
ag12
(g16
S'\xdbS<=\xc6sd@'
p342
tp343
Rp344
VTue Sep 25 18:21:07 +0000 2012
p345
VWed Sep 26 15:51:12 +0000 2012
p346
tp347
a((lp348
Vhaha
p349
aVneed
p350
aVwork
p351
aVwant
p352
aVyeah
p353
aVthem
p354
aVstill
p355
aVmake
p356
aVeven
p357
aVthough
p358
ag12
(g16
S'B\xc2\x8f\x84\xd6\xbbd@'
p359
tp360
Rp361
VTue Sep 25 18:27:56 +0000 2012
p362
VWed Sep 26 16:00:07 +0000 2012
p363
tp364
a((lp365
Vhaha
p366
aVneed
p367
aVwork
p368
aVwant
p369
aVyeah
p370
aVstill
p371
aVthem
p372
aVmake
p373
aVeven
p374
aVthough
p375
ag12
(g16
S'0\xc3`/\x7f\xf3d@'
p376
tp377
Rp378
VTue Sep 25 18:34:35 +0000 2012
p379
VWed Sep 26 16:09:25 +0000 2012
p380
tp381
a((lp382
Vhaha
p383
aVneed
p384
aVwork
p385
aVwant
p386
aVyeah
p387
aVstill
p388
aVthem
p389
aVmake
p390
aVeven
p391
aVthough
p392
ag12
(g16
S'FV\xbb\x04\xee\xfbd@'
p393
tp394
Rp395
VTue Sep 25 18:41:25 +0000 2012
p396
VWed Sep 26 16:17:08 +0000 2012
p397
tp398
a((lp399
Vhaha
p400
aVneed
p401
aVwork
p402
aVwant
p403
aVyeah
p404
aVstill
p405
aVthem
p406
aVmake
p407
aVeven
p408
aVthough
p409
ag12
(g16
S'\xcb\xaf\xf24 \xf5d@'
p410
tp411
Rp412
VTue Sep 25 18:48:42 +0000 2012
p413
VWed Sep 26 16:25:27 +0000 2012
p414
tp415
a((lp416
Vhaha
p417
aVneed
p418
aVwork
p419
aVwant
p420
aVyeah
p421
aVstill
p422
aVthem
p423
aVmake
p424
aVeven
p425
aVthough
p426
ag12
(g16
S'|\x8b\x98{j\x05e@'
p427
tp428
Rp429
VTue Sep 25 18:55:42 +0000 2012
p430
VWed Sep 26 16:33:56 +0000 2012
p431
tp432
a((lp433
Vhaha
p434
aVneed
p435
aVwork
p436
aVwant
p437
aVyeah
p438
aVthem
p439
aVstill
p440
aVmake
p441
aVeven
p442
aVthough
p443
ag12
(g16
S'j\x19\x80\xf4H!e@'
p444
tp445
Rp446
VTue Sep 25 19:02:46 +0000 2012
p447
VWed Sep 26 16:42:29 +0000 2012
p448
tp449
a((lp450
Vhaha
p451
aVneed
p452
aVwork
p453
aVwant
p454
aVyeah
p455
aVthem
p456
aVstill
p457
aVmake
p458
aVeven
p459
aVthough
p460
ag12
(g16
S'\x965\x8a\x1aW#e@'
p461
tp462
Rp463
VTue Sep 25 19:09:08 +0000 2012
p464
VWed Sep 26 16:50:56 +0000 2012
p465
tp466
a((lp467
Vhaha
p468
aVneed
p469
aVwork
p470
aVwant
p471
aVyeah
p472
aVthem
p473
aVstill
p474
aVmake
p475
aVeven
p476
aVthough
p477
ag12
(g16
S"\x98\xee\xe1'>Le@"
p478
tp479
Rp480
VTue Sep 25 19:16:01 +0000 2012
p481
VWed Sep 26 16:58:41 +0000 2012
p482
tp483
a((lp484
Vhaha
p485
aVneed
p486
aVwork
p487
aVwant
p488
aVyeah
p489
aVthem
p490
aVstill
p491
aVmake
p492
aVeven
p493
aVthough
p494
ag12
(g16
S'N\x80\x1d{\xca*e@'
p495
tp496
Rp497
VTue Sep 25 19:22:50 +0000 2012
p498
VWed Sep 26 17:05:59 +0000 2012
p499
tp500
a((lp501
Vhaha
p502
aVneed
p503
aVwork
p504
aVwant
p505
aVyeah
p506
aVstill
p507
aVthem
p508
aVmake
p509
aVeven
p510
aVthough
p511
ag12
(g16
S'M6\xbc\n\n?e@'
p512
tp513
Rp514
VTue Sep 25 19:29:08 +0000 2012
p515
VWed Sep 26 17:14:06 +0000 2012
p516
tp517
a((lp518
Vhaha
p519
aVneed
p520
aVwork
p521
aVwant
p522
aVyeah
p523
aVstill
p524
aVthem
p525
aVmake
p526
aVeven
p527
aVthough
p528
ag12
(g16
S'\x92Y\x96\xe1\x9eGe@'
p529
tp530
Rp531
VTue Sep 25 19:36:08 +0000 2012
p532
VWed Sep 26 17:21:48 +0000 2012
p533
tp534
a((lp535
Vhaha
p536
aVneed
p537
aVwork
p538
aVwant
p539
aVyeah
p540
aVstill
p541
aVthem
p542
aVmake
p543
aVeven
p544
aVthough
p545
ag12
(g16
S'84\xa8;KWe@'
p546
tp547
Rp548
VTue Sep 25 19:42:48 +0000 2012
p549
VWed Sep 26 17:29:39 +0000 2012
p550
tp551
a((lp552
Vhaha
p553
aVneed
p554
aVwork
p555
aVwant
p556
aVyeah
p557
aVstill
p558
aVthem
p559
aVmake
p560
aVeven
p561
aVthough
p562
ag12
(g16
S'\xf0\x8eL\xd0\x84ee@'
p563
tp564
Rp565
VTue Sep 25 19:49:26 +0000 2012
p566
VWed Sep 26 17:36:35 +0000 2012
p567
tp568
a((lp569
Vhaha
p570
aVneed
p571
aVwork
p572
aVwant
p573
aVyeah
p574
aVstill
p575
aVthem
p576
aVmake
p577
aVeven
p578
aVthough
p579
ag12
(g16
S'\xf3,\xf4\x13&ye@'
p580
tp581
Rp582
VTue Sep 25 19:55:57 +0000 2012
p583
VWed Sep 26 17:43:48 +0000 2012
p584
tp585
a((lp586
Vhaha
p587
aVneed
p588
aVwork
p589
aVwant
p590
aVyeah
p591
aVstill
p592
aVthem
p593
aVmake
p594
aVeven
p595
aVthough
p596
ag12
(g16
S'\x16\xd2]a\x90Fe@'
p597
tp598
Rp599
VTue Sep 25 20:02:12 +0000 2012
p600
VWed Sep 26 17:50:28 +0000 2012
p601
tp602
a((lp603
Vhaha
p604
aVneed
p605
aVwork
p606
aVwant
p607
aVyeah
p608
aVstill
p609
aVthem
p610
aVmake
p611
aVeven
p612
aVthough
p613
ag12
(g16
S'\xb0\t\x9f\xee\xfd\x16e@'
p614
tp615
Rp616
VTue Sep 25 20:09:07 +0000 2012
p617
VWed Sep 26 17:57:12 +0000 2012
p618
tp619
a((lp620
Vhaha
p621
aVneed
p622
aVwork
p623
aVwant
p624
aVyeah
p625
aVstill
p626
aVthem
p627
aVmake
p628
aVeven
p629
aVthough
p630
ag12
(g16
S'\x14b"*\xb6\xf6d@'
p631
tp632
Rp633
VTue Sep 25 20:15:18 +0000 2012
p634
VWed Sep 26 18:04:01 +0000 2012
p635
tp636
a((lp637
Vhaha
p638
aVneed
p639
aVwork
p640
aVwant
p641
aVyeah
p642
aVstill
p643
aVthem
p644
aVmake
p645
aVeven
p646
aVthough
p647
ag12
(g16
S'I\x83\x9cOk\xecd@'
p648
tp649
Rp650
VTue Sep 25 20:21:27 +0000 2012
p651
VWed Sep 26 18:10:23 +0000 2012
p652
tp653
a((lp654
Vhaha
p655
aVneed
p656
aVwork
p657
aVwant
p658
aVyeah
p659
aVstill
p660
aVthem
p661
aVthat's
p662
aVeven
p663
aVthough
p664
ag12
(g16
S'\xb1\x08\x08\xaaw\xdad@'
p665
tp666
Rp667
VTue Sep 25 20:27:59 +0000 2012
p668
VWed Sep 26 18:16:57 +0000 2012
p669
tp670
a((lp671
Vhaha
p672
aVneed
p673
aVwork
p674
aVwant
p675
aVyeah
p676
aVstill
p677
aVthem
p678
aVmake
p679
aVeven
p680
aVthough
p681
ag12
(g16
S'\xe4b\xc6\xc8\\\x96d@'
p682
tp683
Rp684
VTue Sep 25 20:34:12 +0000 2012
p685
VWed Sep 26 18:23:16 +0000 2012
p686
tp687
a((lp688
Vhaha
p689
aVneed
p690
aVwork
p691
aVwant
p692
aVyeah
p693
aVstill
p694
aVthem
p695
aVthat's
p696
aVeven
p697
aVthough
p698
ag12
(g16
S'\xf2E\xd8\xb4v\x96d@'
p699
tp700
Rp701
VTue Sep 25 20:40:15 +0000 2012
p702
VWed Sep 26 18:29:49 +0000 2012
p703
tp704
a((lp705
Vhaha
p706
aVneed
p707
aVwork
p708
aVwant
p709
aVyeah
p710
aVstill
p711
aVthem
p712
aVthat's
p713
aVeven
p714
aVthough
p715
ag12
(g16
S'\xbav\x04\xb7\x85\x9ad@'
p716
tp717
Rp718
VTue Sep 25 20:42:08 +0000 2012
p719
VWed Sep 26 18:31:43 +0000 2012
p720
tp721
a.