(lp0
((lp1
Vhaha
p2
aVneed
p3
aVwant
p4
aVwork
p5
aVyeah
p6
aVstill
p7
aVthem
p8
aVmake
p9
aVeven
p10
aVthough
p11
acnumpy.core.multiarray
scalar
p12
(cnumpy
dtype
p13
(S'f8'
p14
I0
I1
tp15
Rp16
(I3
S'<'
p17
NNNI-1
I-1
I0
tp18
bS'\x92h&8\x15)h@'
p19
tp20
Rp21
VTue Sep 25 15:49:40 +0000 2012
p22
VWed Sep 26 16:00:07 +0000 2012
p23
tp24
a((lp25
Vhaha
p26
aVneed
p27
aVwork
p28
aVwant
p29
aVyeah
p30
aVstill
p31
aVthem
p32
aVmake
p33
aVeven
p34
aVthough
p35
ag12
(g16
S'\x04pj\xd4\x1dBh@'
p36
tp37
Rp38
VTue Sep 25 16:07:06 +0000 2012
p39
VWed Sep 26 16:17:08 +0000 2012
p40
tp41
a((lp42
Vhaha
p43
aVneed
p44
aVwork
p45
aVwant
p46
aVyeah
p47
aVstill
p48
aVthem
p49
aVmake
p50
aVeven
p51
aVthough
p52
ag12
(g16
S'\x07\xba)\xe37Xh@'
p53
tp54
Rp55
VTue Sep 25 16:24:36 +0000 2012
p56
VWed Sep 26 16:33:56 +0000 2012
p57
tp58
a((lp59
Vhaha
p60
aVneed
p61
aVwork
p62
aVwant
p63
aVyeah
p64
aVstill
p65
aVthem
p66
aVmake
p67
aVeven
p68
aVthough
p69
ag12
(g16
S'mi\xab{\x8a|h@'
p70
tp71
Rp72
VTue Sep 25 16:41:30 +0000 2012
p73
VWed Sep 26 16:50:56 +0000 2012
p74
tp75
a((lp76
Vhaha
p77
aVneed
p78
aVwork
p79
aVwant
p80
aVyeah
p81
aVstill
p82
aVthem
p83
aVmake
p84
aVeven
p85
aVthough
p86
ag12
(g16
S'\xe4\xdb9\xb0\xf1\x81h@'
p87
tp88
Rp89
VTue Sep 25 16:56:47 +0000 2012
p90
VWed Sep 26 17:05:59 +0000 2012
p91
tp92
a((lp93
Vhaha
p94
aVneed
p95
aVwork
p96
aVwant
p97
aVyeah
p98
aVstill
p99
aVthem
p100
aVmake
p101
aVeven
p102
aVthough
p103
ag12
(g16
S'\x0e|HqY\xb7h@'
p104
tp105
Rp106
VTue Sep 25 17:13:49 +0000 2012
p107
VWed Sep 26 17:21:48 +0000 2012
p108
tp109
a((lp110
Vhaha
p111
aVneed
p112
aVwork
p113
aVwant
p114
aVyeah
p115
aVstill
p116
aVthem
p117
aVmake
p118
aVeven
p119
aVthough
p120
ag12
(g16
S'\xc9\x176\x14x\xbch@'
p121
tp122
Rp123
VTue Sep 25 17:29:40 +0000 2012
p124
VWed Sep 26 17:36:35 +0000 2012
p125
tp126
a((lp127
Vhaha
p128
aVneed
p129
aVwork
p130
aVwant
p131
aVyeah
p132
aVstill
p133
aVthem
p134
aVmake
p135
aVeven
p136
aVthough
p137
ag12
(g16
S'~\xe5\xae\xff\x0c\xcbh@'
p138
tp139
Rp140
VTue Sep 25 17:45:45 +0000 2012
p141
VWed Sep 26 17:50:28 +0000 2012
p142
tp143
a((lp144
Vhaha
p145
aVneed
p146
aVwork
p147
aVwant
p148
aVyeah
p149
aVstill
p150
aVthem
p151
aVmake
p152
aVeven
p153
aVthough
p154
ag12
(g16
S'\xdc\xc3\xce7h\xdbh@'
p155
tp156
Rp157
VTue Sep 25 18:00:01 +0000 2012
p158
VWed Sep 26 18:04:01 +0000 2012
p159
tp160
a((lp161
Vhaha
p162
aVneed
p163
aVwork
p164
aVwant
p165
aVyeah
p166
aVthem
p167
aVstill
p168
aVmake
p169
aVeven
p170
aVthough
p171
ag12
(g16
S'\xf6\x95\xe2\xcd\x86\xcbh@'
p172
tp173
Rp174
VTue Sep 25 18:14:36 +0000 2012
p175
VWed Sep 26 18:16:57 +0000 2012
p176
tp177
a((lp178
Vhaha
p179
aVneed
p180
aVwork
p181
aVwant
p182
aVyeah
p183
aVthem
p184
aVstill
p185
aVmake
p186
aVeven
p187
aVthough
p188
ag12
(g16
S'6\xf3\xb9\xe8<\xb4h@'
p189
tp190
Rp191
VTue Sep 25 18:27:56 +0000 2012
p192
VWed Sep 26 18:29:49 +0000 2012
p193
tp194
a((lp195
Vhaha
p196
aVneed
p197
aVwork
p198
aVwant
p199
aVyeah
p200
aVthem
p201
aVstill
p202
aVmake
p203
aVeven
p204
aVthough
p205
ag12
(g16
S'\x92\xc8\\\x1e\x9d\xb8h@'
p206
tp207
Rp208
VTue Sep 25 18:29:36 +0000 2012
p209
VWed Sep 26 18:31:43 +0000 2012
p210
tp211
a.