(lp0
((lp1
Vthem
p2
aVthanks
p3
aVfollow
p4
aVmake
p5
aVhappy
p6
aVhope
p7
aVyou're
p8
aVplease
p9
aVbirthday
p10
aVeveryone
p11
acnumpy.core.multiarray
scalar
p12
(cnumpy
dtype
p13
(S'f8'
p14
I0
I1
tp15
Rp16
(I3
S'<'
p17
NNNI-1
I-1
I0
tp18
bS'\x9d\\\x03\t6\x7fC@'
p19
tp20
Rp21
VTue Sep 25 15:49:40 +0000 2012
p22
VTue Sep 25 16:56:46 +0000 2012
p23
tp24
a((lp25
Vthem
p26
aVfollow
p27
aVhappy
p28
aVmake
p29
aVhope
p30
aVyou're
p31
aVplease
p32
aVbirthday
p33
aVeveryone
p34
aValso
p35
ag12
(g16
S'\xbd\x01-TmCD@'
p36
tp37
Rp38
VTue Sep 25 15:56:45 +0000 2012
p39
VTue Sep 25 17:03:38 +0000 2012
p40
tp41
a((lp42
Vthem
p43
aVmake
p44
aVgreat
p45
aVfollow
p46
aVhappy
p47
aVhope
p48
aVplease
p49
aVyou're
p50
aVbirthday
p51
aVeveryone
p52
ag12
(g16
S'\x825\x91\x9b(\xc6C@'
p53
tp54
Rp55
VTue Sep 25 16:03:39 +0000 2012
p56
VTue Sep 25 17:10:33 +0000 2012
p57
tp58
a((lp59
Vthem
p60
aVmake
p61
aVhappy
p62
aVhope
p63
aVgreat
p64
aVfollow
p65
aVyou're
p66
aVbirthday
p67
aVhelp
p68
aVcake
p69
ag12
(g16
S'v\xcb\xe9]\x88\xadC@'
p70
tp71
Rp72
VTue Sep 25 16:10:38 +0000 2012
p73
VTue Sep 25 17:16:57 +0000 2012
p74
tp75
a((lp76
Vthem
p77
aVwant
p78
aVmake
p79
aVhappy
p80
aVhope
p81
aVfollow
p82
aVplease
p83
aVgreat
p84
aVbirthday
p85
aVyou're
p86
ag12
(g16
S'^\xf1\x19\x1dwOD@'
p87
tp88
Rp89
VTue Sep 25 16:17:25 +0000 2012
p90
VTue Sep 25 17:22:58 +0000 2012
p91
tp92
a((lp93
Vthem
p94
aVmake
p95
aVhappy
p96
aVfollow
p97
aVhope
p98
aVbirthday
p99
aVyou're
p100
aVplease
p101
aVvery
p102
aVspecial
p103
ag12
(g16
S'\xd6\xe8\x94\x0b\xbd\xe5H@'
p104
tp105
Rp106
VTue Sep 25 16:24:36 +0000 2012
p107
VTue Sep 25 17:29:38 +0000 2012
p108
tp109
a((lp110
Vhaha
p111
aVhappy
p112
aVmake
p113
aVfollow
p114
aVvery
p115
aVhope
p116
aVbirthday
p117
aVyou're
p118
aVplease
p119
aVever
p120
ag12
(g16
S'\xc1\xaf\xbbZ\xfd\xdbC@'
p121
tp122
Rp123
VTue Sep 25 16:31:26 +0000 2012
p124
VTue Sep 25 17:36:13 +0000 2012
p125
tp126
a((lp127
Vwant
p128
aVthem
p129
aVmake
p130
aVhappy
p131
aVplease
p132
aVfollow
p133
aVbirthday
p134
aVbest
p135
aVvery
p136
aVyou're
p137
ag12
(g16
S'\xe8\x13\xcc\xa9\xbd\x1bC@'
p138
tp139
Rp140
VTue Sep 25 16:38:29 +0000 2012
p141
VTue Sep 25 17:42:28 +0000 2012
p142
tp143
a((lp144
Vwant
p145
aVthem
p146
aVmake
p147
aVhappy
p148
aVbirthday
p149
aVplease
p150
aVbest
p151
aVvery
p152
aVfollow
p153
aVyou're
p154
ag12
(g16
S'\xc2!\x93\x98\xda\xd8B@'
p155
tp156
Rp157
VTue Sep 25 16:44:50 +0000 2012
p158
VTue Sep 25 17:48:52 +0000 2012
p159
tp160
a((lp161
Vneed
p162
aVyeah
p163
aVhaha
p164
aVthat's
p165
aVnever
p166
aVsomeone
p167
aVmate
p168
aVtake
p169
aVsaid
p170
aVokay
p171
ag12
(g16
S'\xa7\xb0\xdfI\x8b\x030@'
p172
tp173
Rp174
VTue Sep 25 16:50:42 +0000 2012
p175
VTue Sep 25 17:54:39 +0000 2012
p176
tp177
a((lp178
Vneed
p179
aVwant
p180
aVwork
p181
aVhaha
p182
aVyeah
p183
aVthat's
p184
aVlook
p185
aVi've
p186
aVmate
p187
aVdays
p188
ag12
(g16
S'<X\xb0;\xed\t+@'
p189
tp190
Rp191
VTue Sep 25 16:56:47 +0000 2012
p192
VTue Sep 25 18:00:01 +0000 2012
p193
tp194
a((lp195
Vwant
p196
aVthanks
p197
aVmake
p198
aVplease
p199
aVhappy
p200
aVbirthday
p201
aVfollow
p202
aVyou're
p203
aVsure
p204
aVsense
p205
ag12
(g16
S'}-u\xf7\xab\xc6A@'
p206
tp207
Rp208
VTue Sep 25 17:03:38 +0000 2012
p209
VTue Sep 25 18:05:55 +0000 2012
p210
tp211
a((lp212
Vwant
p213
aVthanks
p214
aVmake
p215
aVhappy
p216
aVplease
p217
aVfollow
p218
aVgonna
p219
aVbirthday
p220
aVsure
p221
aVsense
p222
ag12
(g16
S"\xbe\x1a'xjwA@"
p223
tp224
Rp225
VTue Sep 25 17:10:33 +0000 2012
p226
VTue Sep 25 18:11:47 +0000 2012
p227
tp228
a((lp229
Vwant
p230
aVthanks
p231
aVmake
p232
aVhappy
p233
aVfollow
p234
aVplease
p235
aVbirthday
p236
aVgonna
p237
aVsure
p238
aVsense
p239
ag12
(g16
S'\xc1Q\x1b\x12n_E@'
p240
tp241
Rp242
VTue Sep 25 17:16:59 +0000 2012
p243
VTue Sep 25 18:17:06 +0000 2012
p244
tp245
a((lp246
Vwant
p247
aVmake
p248
aVhappy
p249
aVfollow
p250
aVgonna
p251
aVbirthday
p252
aVplease
p253
aVsure
p254
aVmight
p255
aVsense
p256
ag12
(g16
S'\xb9k!39@D@'
p257
tp258
Rp259
VTue Sep 25 17:22:59 +0000 2012
p260
VTue Sep 25 18:22:33 +0000 2012
p261
tp262
a((lp263
Vneed
p264
aVwant
p265
aVafter
p266
aVtake
p267
aVnext
p268
aVdays
p269
aVthings
p270
aVsomething
p271
aVseen
p272
aVmoney
p273
ag12
(g16
S'\x08\xcc\x1e\x9d\x9b\x08.@'
p274
tp275
Rp276
VTue Sep 25 17:29:40 +0000 2012
p277
VTue Sep 25 18:27:56 +0000 2012
p278
tp279
a((lp280
Vneed
p281
aVwant
p282
aVi've
p283
aVagain
p284
aVnice
p285
aVfirst
p286
aVweek
p287
aVseen
p288
aVsomething
p289
aVmoney
p290
ag12
(g16
S'\x08\xbc\xd6\xf2\xb3!.@'
p291
tp292
Rp293
VTue Sep 25 17:36:14 +0000 2012
p294
VTue Sep 25 18:33:13 +0000 2012
p295
tp296
a((lp297
Vneed
p298
aVonly
p299
aVwant
p300
aVyeah
p301
aVnever
p302
aVi've
p303
aVagain
p304
aVafter
p305
aVever
p306
aVseen
p307
ag12
(g16
S'\x1b\x08O\x94\xd0\xb60@'
p308
tp309
Rp310
VTue Sep 25 17:42:29 +0000 2012
p311
VTue Sep 25 18:38:47 +0000 2012
p312
tp313
a((lp314
Vhaha
p315
aVneed
p316
aVi've
p317
aVnever
p318
aVagain
p319
aVever
p320
aVdays
p321
aVseen
p322
aVthought
p323
aVseeing
p324
ag12
(g16
S'\x1e@\xf1\xef\xde[2@'
p325
tp326
Rp327
VTue Sep 25 17:48:53 +0000 2012
p328
VTue Sep 25 18:44:25 +0000 2012
p329
tp330
a((lp331
Vhaha
p332
aVstill
p333
aVwork
p334
aVi've
p335
aVhere
p336
aVeven
p337
aVfeel
p338
aVhope
p339
aVvery
p340
aVweek
p341
ag12
(g16
S'\x15x\xcb\xba.\xaa-@'
p342
tp343
Rp344
VTue Sep 25 17:54:39 +0000 2012
p345
VTue Sep 25 18:49:58 +0000 2012
p346
tp347
a((lp348
Vwork
p349
aVstill
p350
aVwant
p351
aVeven
p352
aVmake
p353
aVthough
p354
aVnice
p355
aVvery
p356
aVlittle
p357
aVmyself
p358
ag12
(g16
S')X\xae\xf2p\xec0@'
p359
tp360
Rp361
VTue Sep 25 18:00:01 +0000 2012
p362
VTue Sep 25 18:55:42 +0000 2012
p363
tp364
a((lp365
Vstill
p366
aVwork
p367
aVthem
p368
aVwant
p369
aVhere
p370
aVthough
p371
aVafter
p372
aVover
p373
aVdont
p374
aVhard
p375
ag12
(g16
S'\xdf\xcf\xd2\xd1] 0@'
p376
tp377
Rp378
VTue Sep 25 18:05:55 +0000 2012
p379
VTue Sep 25 19:01:23 +0000 2012
p380
tp381
a((lp382
Vhaha
p383
aVwork
p384
aVthem
p385
aVstill
p386
aVhere
p387
aVeven
p388
aVdays
p389
aVmade
p390
aVafter
p391
aVhard
p392
ag12
(g16
S'$*\x14\x9fQ\xb5/@'
p393
tp394
Rp395
VTue Sep 25 18:11:48 +0000 2012
p396
VTue Sep 25 19:06:27 +0000 2012
p397
tp398
a((lp399
Vwant
p400
aVwork
p401
aVstill
p402
aVthem
p403
aVmake
p404
aVthough
p405
aVafter
p406
aVover
p407
aVdont
p408
aVhard
p409
ag12
(g16
S'\xbb&\xb3\xfei@0@'
p410
tp411
Rp412
VTue Sep 25 18:17:06 +0000 2012
p413
VTue Sep 25 19:12:06 +0000 2012
p414
tp415
a((lp416
Vwork
p417
aVstill
p418
aVnever
p419
aVi've
p420
aVhere
p421
aVafter
p422
aVdays
p423
aVseen
p424
aVhard
p425
aVthese
p426
ag12
(g16
S'\xfd\xd2_\xe3\xd5\x961@'
p427
tp428
Rp429
VTue Sep 25 18:22:35 +0000 2012
p430
VTue Sep 25 19:17:25 +0000 2012
p431
tp432
a((lp433
Vstill
p434
aVthem
p435
aVi've
p436
aVseen
p437
aVwithout
p438
aVgone
p439
aVseeing
p440
aVhaven't
p441
aVlongest
p442
aVbayside
p443
ag12
(g16
S'\xf8b\xa0\xa2U\x106@'
p444
tp445
Rp446
VTue Sep 25 18:27:56 +0000 2012
p447
VTue Sep 25 19:22:50 +0000 2012
p448
tp449
a((lp450
Vgreat
p451
aVnice
p452
aVnight
p453
aVgbbo
p454
aVwatch
p455
aVshow
p456
aVbritish
p457
aVbake
p458
aVbuns
p459
aVspend
p460
ag12
(g16
S'\xd4\xb8D\xfe[r;@'
p461
tp462
Rp463
VTue Sep 25 18:33:13 +0000 2012
p464
VTue Sep 25 19:27:55 +0000 2012
p465
tp466
a((lp467
Vthem
p468
aVstill
p469
aVi've
p470
aVwithout
p471
aVseen
p472
aVgone
p473
aVseeing
p474
aVhaven't
p475
aVlongest
p476
aVbayside
p477
ag12
(g16
S'\xf2\xbf\x91.F66@'
p478
tp479
Rp480
VTue Sep 25 18:38:48 +0000 2012
p481
VTue Sep 25 19:33:18 +0000 2012
p482
tp483
a((lp484
Vgreat
p485
aVgbbo
p486
aVnice
p487
aVnight
p488
aVwatching
p489
aVshow
p490
aVbake
p491
aVbritish
p492
aVbuns
p493
aVbakeoff
p494
ag12
(g16
S'D\x12\x1e\x08\xec\xe6?@'
p495
tp496
Rp497
VTue Sep 25 18:44:25 +0000 2012
p498
VTue Sep 25 19:38:49 +0000 2012
p499
tp500
a((lp501
Vgbbo
p502
aVgreat
p503
aVnight
p504
aVnice
p505
aVgonna
p506
aVwatching
p507
aVshow
p508
aVbake
p509
aVbritish
p510
aVbuns
p511
ag12
(g16
S'sB\xed\x98\xd0\x04A@'
p512
tp513
Rp514
VTue Sep 25 18:49:58 +0000 2012
p515
VTue Sep 25 19:44:08 +0000 2012
p516
tp517
a((lp518
Vgbbo
p519
aVgreat
p520
aVnight
p521
aVi've
p522
aVnice
p523
aVwatching
p524
aVshow
p525
aVhalf
p526
aVbake
p527
aVbritish
p528
ag12
(g16
S'\xcd>!\xb8\x8d\x07A@'
p529
tp530
Rp531
VTue Sep 25 18:55:42 +0000 2012
p532
VTue Sep 25 19:49:25 +0000 2012
p533
tp534
a((lp535
Vthem
p536
aVstill
p537
aVi've
p538
aVseen
p539
aVwithout
p540
aVhaven't
p541
aVgone
p542
aVseeing
p543
aVlongest
p544
aVbayside
p545
ag12
(g16
S'\xce\x94\xbd\xad!R6@'
p546
tp547
Rp548
VTue Sep 25 19:01:24 +0000 2012
p549
VTue Sep 25 19:54:37 +0000 2012
p550
tp551
a((lp552
Vwant
p553
aVthem
p554
aVgbbo
p555
aVstill
p556
aVright
p557
aVeven
p558
aVi've
p559
aVseen
p560
aVhaven't
p561
aVdoughnut
p562
ag12
(g16
S'\xd1\x9b9Pv,4@'
p563
tp564
Rp565
VTue Sep 25 19:06:28 +0000 2012
p566
VTue Sep 25 19:59:42 +0000 2012
p567
tp568
a((lp569
Vwant
p570
aVthem
p571
aVgbbo
p572
aVonly
p573
aVstill
p574
aVright
p575
aVeven
p576
aVnext
p577
aVweek
p578
aVdoughnut
p579
ag12
(g16
S'\xca\x03"_\x9fW4@'
p580
tp581
Rp582
VTue Sep 25 19:12:08 +0000 2012
p583
VTue Sep 25 20:04:47 +0000 2012
p584
tp585
a((lp586
Vwant
p587
aVthem
p588
aVgbbo
p589
aVyeah
p590
aVright
p591
aVstill
p592
aVeven
p593
aVweek
p594
aVnext
p595
aVdoughnut
p596
ag12
(g16
S"\xae\xb8}-'\xb64@"
p597
tp598
Rp599
VTue Sep 25 19:17:26 +0000 2012
p600
VTue Sep 25 20:10:26 +0000 2012
p601
tp602
a((lp603
Vwant
p604
aVhaha
p605
aVthem
p606
aVgbbo
p607
aVonly
p608
aVneed
p609
aVright
p610
aVnext
p611
aVweek
p612
aVdoughnut
p613
ag12
(g16
S'\x84$\xb1\xd6K#5@'
p614
tp615
Rp616
VTue Sep 25 19:22:50 +0000 2012
p617
VTue Sep 25 20:15:18 +0000 2012
p618
tp619
a((lp620
Vhaha
p621
aVwant
p622
aVthem
p623
aVyeah
p624
aVonly
p625
aVnever
p626
aVi've
p627
aVafter
p628
aVsomeone
p629
aVweek
p630
ag12
(g16
S'FA\xdf\x9a,\xfc2@'
p631
tp632
Rp633
VTue Sep 25 19:27:57 +0000 2012
p634
VTue Sep 25 20:20:17 +0000 2012
p635
tp636
a((lp637
Vhaha
p638
aVwant
p639
aVthem
p640
aVonly
p641
aVyeah
p642
aVright
p643
aVi've
p644
aVsomeone
p645
aVweek
p646
aVtake
p647
ag12
(g16
S'\xda\xb5\x15\xea\xb3\xee2@'
p648
tp649
Rp650
VTue Sep 25 19:33:19 +0000 2012
p651
VTue Sep 25 20:25:29 +0000 2012
p652
tp653
a((lp654
Vthem
p655
aVfollow
p656
aVactually
p657
aVplease
p658
aVstill
p659
aVamazing
p660
aVthank
p661
aVperfect
p662
aVboys
p663
aVidol
p664
ag12
(g16
S'+Z\xe5\xa9!\x17E@'
p665
tp666
Rp667
VTue Sep 25 19:38:49 +0000 2012
p668
VTue Sep 25 20:30:36 +0000 2012
p669
tp670
a((lp671
Vhaha
p672
aVwant
p673
aVonly
p674
aVthem
p675
aVyeah
p676
aVright
p677
aVi've
p678
aVwere
p679
aVsomeone
p680
aVgirls
p681
ag12
(g16
S'\xee\xd2\x17j\xaa\xaf3@'
p682
tp683
Rp684
VTue Sep 25 19:44:08 +0000 2012
p685
VTue Sep 25 20:35:22 +0000 2012
p686
tp687
a((lp688
Vhaha
p689
aVwant
p690
aVneed
p691
aVonly
p692
aVyeah
p693
aVthem
p694
aVeven
p695
aVright
p696
aVsomeone
p697
aVi've
p698
ag12
(g16
S'B\n\xf0T\xd4Z4@'
p699
tp700
Rp701
VTue Sep 25 19:49:26 +0000 2012
p702
VTue Sep 25 20:40:14 +0000 2012
p703
tp704
a((lp705
Vhaha
p706
aVthem
p707
aVonly
p708
aVneed
p709
aVyeah
p710
aVplease
p711
aVright
p712
aVi've
p713
aVsomeone
p714
aVthough
p715
ag12
(g16
S'\xcen\xc5\xe03\xd34@'
p716
tp717
Rp718
VTue Sep 25 19:54:37 +0000 2012
p719
VTue Sep 25 20:45:20 +0000 2012
p720
tp721
a((lp722
Vhaha
p723
aVthem
p724
aVonly
p725
aVyeah
p726
aVnight
p727
aVstill
p728
aVi've
p729
aVright
p730
aVwere
p731
aVafter
p732
ag12
(g16
S'n\xd3\xa5\x7fO.4@'
p733
tp734
Rp735
VTue Sep 25 19:59:43 +0000 2012
p736
VTue Sep 25 20:50:08 +0000 2012
p737
tp738
a((lp739
Vhaha
p740
aVwant
p741
aVonly
p742
aVthem
p743
aVyeah
p744
aVstill
p745
aVi've
p746
aVsomeone
p747
aVcould
p748
aVwere
p749
ag12
(g16
S'\xc2\x1f\n\xd4\xea\xb34@'
p750
tp751
Rp752
VTue Sep 25 20:04:47 +0000 2012
p753
VTue Sep 25 20:54:46 +0000 2012
p754
tp755
a((lp756
Vhaha
p757
aVthem
p758
aVonly
p759
aVyeah
p760
aVstill
p761
aVright
p762
aVwere
p763
aVsomeone
p764
aVcould
p765
aVfriends
p766
ag12
(g16
S'<\x19`9&W3@'
p767
tp768
Rp769
VTue Sep 25 20:10:26 +0000 2012
p770
VTue Sep 25 20:59:43 +0000 2012
p771
tp772
a((lp773
Vneed
p774
aVhaha
p775
aVwant
p776
aVonly
p777
aVthem
p778
aVyeah
p779
aVthough
p780
aVstill
p781
aVcould
p782
aVwere
p783
ag12
(g16
S'\x82\xf3\xceB\xf6\xe12@'
p784
tp785
Rp786
VTue Sep 25 20:15:18 +0000 2012
p787
VTue Sep 25 21:04:26 +0000 2012
p788
tp789
a((lp790
Vhaha
p791
aVonly
p792
aVthem
p793
aVyeah
p794
aVthough
p795
aVstill
p796
aVnever
p797
aVsomeone
p798
aVcould
p799
aVhere
p800
ag12
(g16
S'\xd0\xfe\xac\x91\xa6\x903@'
p801
tp802
Rp803
VTue Sep 25 20:20:17 +0000 2012
p804
VTue Sep 25 21:08:58 +0000 2012
p805
tp806
a((lp807
Vhaha
p808
aVonly
p809
aVyeah
p810
aVthem
p811
aVthough
p812
aVstill
p813
aVnever
p814
aVcould
p815
aVsomeone
p816
aVhere
p817
ag12
(g16
S'\x9cP\r\x06\x85H4@'
p818
tp819
Rp820
VTue Sep 25 20:25:30 +0000 2012
p821
VTue Sep 25 21:13:48 +0000 2012
p822
tp823
a((lp824
Vhaha
p825
aVonly
p826
aVneed
p827
aVthough
p828
aVthem
p829
aVnever
p830
aVfirst
p831
aVcould
p832
aVsomeone
p833
aVhere
p834
ag12
(g16
S'3\xdd\xb7\x89\xed\xc62@'
p835
tp836
Rp837
VTue Sep 25 20:30:37 +0000 2012
p838
VTue Sep 25 21:17:58 +0000 2012
p839
tp840
a((lp841
Vhaha
p842
aVonly
p843
aVneed
p844
aVthough
p845
aVthem
p846
aVnever
p847
aVfirst
p848
aVsomeone
p849
aVcould
p850
aVhere
p851
ag12
(g16
S'@\xfb\xd3\xb3\xe9j3@'
p852
tp853
Rp854
VTue Sep 25 20:35:23 +0000 2012
p855
VTue Sep 25 21:22:39 +0000 2012
p856
tp857
a((lp858
Vhaha
p859
aVonly
p860
aVneed
p861
aVthough
p862
aVthem
p863
aVnever
p864
aVcould
p865
aVthan
p866
aVsomeone
p867
aVhere
p868
ag12
(g16
S'\xa5/\xa4\x1f\x82\x943@'
p869
tp870
Rp871
VTue Sep 25 20:40:15 +0000 2012
p872
VTue Sep 25 21:27:16 +0000 2012
p873
tp874
a((lp875
Vhaha
p876
aVthough
p877
aVthem
p878
aVthat's
p879
aVnever
p880
aVactually
p881
aVcould
p882
aValways
p883
aVtell
p884
aVsomeone
p885
ag12
(g16
S'C\xf2\xaf\x82\x91d2@'
p886
tp887
Rp888
VTue Sep 25 20:45:21 +0000 2012
p889
VTue Sep 25 21:32:15 +0000 2012
p890
tp891
a((lp892
Vhaha
p893
aVonly
p894
aVthem
p895
aVthough
p896
aVnever
p897
aValways
p898
aVcould
p899
aVhere
p900
aVwere
p901
aVsomeone
p902
ag12
(g16
S'`\xd2Z\x15\x9ct3@'
p903
tp904
Rp905
VTue Sep 25 20:50:09 +0000 2012
p906
VTue Sep 25 21:37:51 +0000 2012
p907
tp908
a((lp909
Vhaha
p910
aVthem
p911
aVnever
p912
aVactually
p913
aValways
p914
aVbest
p915
aVi've
p916
aVwere
p917
aVhahaha
p918
aVseen
p919
ag12
(g16
S'\xd4\x8e\x1c\xc8|\x813@'
p920
tp921
Rp922
VTue Sep 25 20:54:47 +0000 2012
p923
VTue Sep 25 21:43:16 +0000 2012
p924
tp925
a((lp926
Vhaha
p927
aVthat's
p928
aVthem
p929
aVnever
p930
aVeven
p931
aValways
p932
aVi've
p933
aVever
p934
aVhahaha
p935
aVsomeone
p936
ag12
(g16
S'2\x93\x94\xb1c\xdb1@'
p937
tp938
Rp939
VTue Sep 25 20:59:45 +0000 2012
p940
VTue Sep 25 21:48:27 +0000 2012
p941
tp942
a((lp943
Vhaha
p944
aVneed
p945
aVthat's
p946
aVnever
p947
aVthem
p948
aVthough
p949
aVeven
p950
aVever
p951
aValways
p952
aVseen
p953
ag12
(g16
S'\\Br.gI2@'
p954
tp955
Rp956
VTue Sep 25 21:04:26 +0000 2012
p957
VTue Sep 25 21:53:59 +0000 2012
p958
tp959
a((lp960
Vnight
p961
aVyeah
p962
aVthem
p963
aVmake
p964
aVwork
p965
aVbest
p966
aVi've
p967
aVfirst
p968
aVwere
p969
aVthing
p970
ag12
(g16
S'M\\\x0f\x85l[2@'
p971
tp972
Rp973
VTue Sep 25 21:08:58 +0000 2012
p974
VTue Sep 25 21:59:32 +0000 2012
p975
tp976
a((lp977
Vhaha
p978
aVneed
p979
aVwant
p980
aVthat's
p981
aVyeah
p982
aVthem
p983
aVnever
p984
aVthough
p985
aValways
p986
aVsure
p987
ag12
(g16
S'\xd7\x85\xa1\x80v\xee1@'
p988
tp989
Rp990
VTue Sep 25 21:13:49 +0000 2012
p991
VTue Sep 25 22:05:15 +0000 2012
p992
tp993
a((lp994
Vtomorrow
p995
aVneed
p996
aVnight
p997
aVhaha
p998
aVwant
p999
aVthem
p1000
aVthat's
p1001
aVnever
p1002
aVever
p1003
aValways
p1004
ag12
(g16
S'\xf4$\x96\x15I*4@'
p1005
tp1006
Rp1007
VTue Sep 25 21:17:58 +0000 2012
p1008
VTue Sep 25 22:11:15 +0000 2012
p1009
tp1010
a((lp1011
Vhaha
p1012
aVthem
p1013
aVonly
p1014
aVyeah
p1015
aVnever
p1016
aVbest
p1017
aVthough
p1018
aVi've
p1019
aVever
p1020
aVseen
p1021
ag12
(g16
S'\x1a@gRC\xca5@'
p1022
tp1023
Rp1024
VTue Sep 25 21:22:40 +0000 2012
p1025
VTue Sep 25 22:17:34 +0000 2012
p1026
tp1027
a((lp1028
Vtomorrow
p1029
aVneed
p1030
aVhaha
p1031
aVwant
p1032
aVthem
p1033
aVthat's
p1034
aVnever
p1035
aVmake
p1036
aVthough
p1037
aVever
p1038
ag12
(g16
S'd\x8a\xf9\x11\r]2@'
p1039
tp1040
Rp1041
VTue Sep 25 21:27:16 +0000 2012
p1042
VTue Sep 25 22:23:57 +0000 2012
p1043
tp1044
a((lp1045
Vmake
p1046
aVthem
p1047
aVnever
p1048
aVbest
p1049
aVi've
p1050
aVever
p1051
aVthing
p1052
aVseen
p1053
aVanyone
p1054
aVchat
p1055
ag12
(g16
S'$U\xf3\xa4\x8b\xf53@'
p1056
tp1057
Rp1058
VTue Sep 25 21:32:16 +0000 2012
p1059
VTue Sep 25 22:30:59 +0000 2012
p1060
tp1061
a((lp1062
Vnight
p1063
aVhaha
p1064
aVneed
p1065
aVwant
p1066
aVyeah
p1067
aVthem
p1068
aVmake
p1069
aVi've
p1070
aVgonna
p1071
aVever
p1072
ag12
(g16
S'X\x87\x84s\xc1\xcf1@'
p1073
tp1074
Rp1075
VTue Sep 25 21:37:51 +0000 2012
p1076
VTue Sep 25 22:38:41 +0000 2012
p1077
tp1078
a((lp1079
Vhaha
p1080
aVmake
p1081
aVi've
p1082
aVbest
p1083
aVonly
p1084
aVnever
p1085
aVever
p1086
aVthing
p1087
aVseen
p1088
aVchat
p1089
ag12
(g16
S'\xae\x00\xb4\xa2y\x954@'
p1090
tp1091
Rp1092
VTue Sep 25 21:43:17 +0000 2012
p1093
VTue Sep 25 22:47:09 +0000 2012
p1094
tp1095
a((lp1096
Vwant
p1097
aVi've
p1098
aVthem
p1099
aVbest
p1100
aVnever
p1101
aVlife
p1102
aVever
p1103
aVthing
p1104
aVseen
p1105
aVchat
p1106
ag12
(g16
S'\xdd\xeb\xf7\xec\xa6\xfc4@'
p1107
tp1108
Rp1109
VTue Sep 25 21:48:28 +0000 2012
p1110
VTue Sep 25 22:56:30 +0000 2012
p1111
tp1112
a((lp1113
Vwant
p1114
aVthem
p1115
aVi've
p1116
aVbest
p1117
aVlife
p1118
aVnever
p1119
aVthing
p1120
aVever
p1121
aVbefore
p1122
aVseen
p1123
ag12
(g16
S'\x1aP\x07\xbf\\\x846@'
p1124
tp1125
Rp1126
VTue Sep 25 21:54:00 +0000 2012
p1127
VTue Sep 25 23:06:32 +0000 2012
p1128
tp1129
a((lp1130
Vthem
p1131
aVi've
p1132
aVlife
p1133
aVnever
p1134
aVbest
p1135
aVonly
p1136
aVever
p1137
aVbefore
p1138
aVthing
p1139
aVseen
p1140
ag12
(g16
S'.OAW@X7@'
p1141
tp1142
Rp1143
VTue Sep 25 21:59:32 +0000 2012
p1144
VTue Sep 25 23:17:44 +0000 2012
p1145
tp1146
a((lp1147
Vnight
p1148
aVhaha
p1149
aVneed
p1150
aVi've
p1151
aVstill
p1152
aVyeah
p1153
aVnever
p1154
aVmake
p1155
aVeven
p1156
aVever
p1157
ag12
(g16
S'\xf8\x1e\xb4h,\xbe2@'
p1158
tp1159
Rp1160
VTue Sep 25 22:05:16 +0000 2012
p1161
VTue Sep 25 23:32:21 +0000 2012
p1162
tp1163
a((lp1164
Vwant
p1165
aVbest
p1166
aVnever
p1167
aVyeah
p1168
aVlife
p1169
aVthem
p1170
aVthing
p1171
aVever
p1172
aVevery
p1173
aVbefore
p1174
ag12
(g16
S'\x88&\x97\xe6\xd842@'
p1175
tp1176
Rp1177
VTue Sep 25 22:11:22 +0000 2012
p1178
VTue Sep 25 23:49:49 +0000 2012
p1179
tp1180
a((lp1181
Vnight
p1182
aVhaha
p1183
aVtomorrow
p1184
aVnever
p1185
aVlife
p1186
aVi've
p1187
aVmake
p1188
aVevery
p1189
aVthing
p1190
aVever
p1191
ag12
(g16
S'{*I/\n\x8b1@'
p1192
tp1193
Rp1194
VTue Sep 25 22:17:35 +0000 2012
p1195
VWed Sep 26 00:08:01 +0000 2012
p1196
tp1197
a((lp1198
Vneed
p1199
aVwant
p1200
aVnever
p1201
aVthem
p1202
aVyeah
p1203
aVstill
p1204
aVplease
p1205
aVshould
p1206
aVbecause
p1207
aVsame
p1208
ag12
(g16
S'N\x84\xd6\xfa)\xe22@'
p1209
tp1210
Rp1211
VTue Sep 25 22:23:59 +0000 2012
p1212
VWed Sep 26 00:30:32 +0000 2012
p1213
tp1214
a((lp1215
Vhaha
p1216
aVneed
p1217
aVwant
p1218
aVnever
p1219
aVthem
p1220
aVtomorrow
p1221
aVstill
p1222
aVonly
p1223
aVmake
p1224
aVthough
p1225
ag12
(g16
S'>_\xc7\xa2\t\xa10@'
p1226
tp1227
Rp1228
VTue Sep 25 22:31:00 +0000 2012
p1229
VWed Sep 26 00:54:30 +0000 2012
p1230
tp1231
a((lp1232
Vnever
p1233
aVonly
p1234
aVi've
p1235
aVbefore
p1236
aVseen
p1237
aVeverything
p1238
aVforget
p1239
aVyou'd
p1240
aVchurch
p1241
aVbible
p1242
ag12
(g16
S'\x8fN\xbe\xd5\x92\xd75@'
p1243
tp1244
Rp1245
VTue Sep 25 22:38:45 +0000 2012
p1246
VWed Sep 26 01:25:20 +0000 2012
p1247
tp1248
a((lp1249
Vnever
p1250
aVonly
p1251
aVi've
p1252
aVbefore
p1253
aVseen
p1254
aVforget
p1255
aVeverything
p1256
aVyou'd
p1257
aVguide
p1258
aVchurch
p1259
ag12
(g16
S'ak\x88\x93\xca\x955@'
p1260
tp1261
Rp1262
VTue Sep 25 22:47:12 +0000 2012
p1263
VWed Sep 26 02:08:35 +0000 2012
p1264
tp1265
a((lp1266
Vnever
p1267
aVonly
p1268
aVi've
p1269
aVbefore
p1270
aVseen
p1271
aVforget
p1272
aVeverything
p1273
aVyou'd
p1274
aVchurch
p1275
aVbible
p1276
ag12
(g16
S'.\x9cD{\x04\xff5@'
p1277
tp1278
Rp1279
VTue Sep 25 22:56:30 +0000 2012
p1280
VWed Sep 26 03:21:05 +0000 2012
p1281
tp1282
a((lp1283
Vnight
p1284
aVneed
p1285
aVnever
p1286
aVonly
p1287
aVlook
p1288
aVi've
p1289
aVagain
p1290
aVbefore
p1291
aVdays
p1292
aVseen
p1293
ag12
(g16
S'\xecZ\xedNk\x0c0@'
p1294
tp1295
Rp1296
VTue Sep 25 23:06:32 +0000 2012
p1297
VWed Sep 26 05:01:11 +0000 2012
p1298
tp1299
a((lp1300
Vbest
p1301
aVwatching
p1302
aVweek
p1303
aVfriend
p1304
aVexcited
p1305
aVtalking
p1306
aVstaying
p1307
aVeating
p1308
aVthurs
p1309
aVmalteasers
p1310
ag12
(g16
S'\x84A\x95\x1aU>=@'
p1311
tp1312
Rp1313
VTue Sep 25 23:17:45 +0000 2012
p1314
VWed Sep 26 05:46:25 +0000 2012
p1315
tp1316
a((lp1317
Vhappy
p1318
aVbirthday
p1319
aVhope
p1320
aVamazing
p1321
aVgreat
p1322
aVbeautiful
p1323
aVlittle
p1324
aVwish
p1325
aVmakes
p1326
aVbaby
p1327
ag12
(g16
S'\xc4V*\xcc!\xfd<@'
p1328
tp1329
Rp1330
VTue Sep 25 23:32:22 +0000 2012
p1331
VWed Sep 26 06:11:40 +0000 2012
p1332
tp1333
a((lp1334
Vhappy
p1335
aVbirthday
p1336
aVamazing
p1337
aVgreat
p1338
aVhope
p1339
aVwish
p1340
aVbeautiful
p1341
aVmakes
p1342
aVbaby
p1343
aVenjoy
p1344
ag12
(g16
S'vr|\xe6\xd8YC@'
p1345
tp1346
Rp1347
VTue Sep 25 23:49:52 +0000 2012
p1348
VWed Sep 26 06:27:41 +0000 2012
p1349
tp1350
a((lp1351
Vhappy
p1352
aVbirthday
p1353
aVhope
p1354
aVgreat
p1355
aVamazing
p1356
aVbeautiful
p1357
aVmakes
p1358
aVlovely
p1359
aVbaby
p1360
aVenjoy
p1361
ag12
(g16
S'\xabx\xe4e\xe6(D@'
p1362
tp1363
Rp1364
VWed Sep 26 00:08:02 +0000 2012
p1365
VWed Sep 26 06:42:58 +0000 2012
p1366
tp1367
a((lp1368
Vhappy
p1369
aVbirthday
p1370
aVgreat
p1371
aVhope
p1372
aVamazing
p1373
aVlooks
p1374
aVbeautiful
p1375
aVlovely
p1376
aVbaby
p1377
aVenjoy
p1378
ag12
(g16
S'tu\x13\xab`\xeeD@'
p1379
tp1380
Rp1381
VWed Sep 26 00:30:33 +0000 2012
p1382
VWed Sep 26 06:55:57 +0000 2012
p1383
tp1384
a((lp1385
Vbirthday
p1386
aVgreat
p1387
aVhope
p1388
aVweather
p1389
aVshit
p1390
aVamazing
p1391
aVactually
p1392
aVbeautiful
p1393
aVlovely
p1394
aVlots
p1395
ag12
(g16
S'9\xb1\xc5|UCJ@'
p1396
tp1397
Rp1398
VWed Sep 26 00:54:34 +0000 2012
p1399
VWed Sep 26 07:07:48 +0000 2012
p1400
tp1401
a((lp1402
Vbirthday
p1403
aVweather
p1404
aVhope
p1405
aVshit
p1406
aVactually
p1407
aVamazing
p1408
aVlater
p1409
aVbeautiful
p1410
aVlovely
p1411
aVlots
p1412
ag12
(g16
S'\xb5k#-\t}M@'
p1413
tp1414
Rp1415
VWed Sep 26 01:25:27 +0000 2012
p1416
VWed Sep 26 07:18:19 +0000 2012
p1417
tp1418
a((lp1419
Vhappy
p1420
aVhope
p1421
aVshit
p1422
aVever
p1423
aVamazing
p1424
aVlovely
p1425
aVlater
p1426
aVenjoy
p1427
aVlots
p1428
aVdear
p1429
ag12
(g16
S'\x80\x05\x8f\x8bPsO@'
p1430
tp1431
Rp1432
VWed Sep 26 02:08:40 +0000 2012
p1433
VWed Sep 26 07:27:37 +0000 2012
p1434
tp1435
a((lp1436
Vplease
p1437
aVpolice
p1438
aVfollowing
p1439
aVfollow
p1440
aVofficers
p1441
aVfallen
p1442
aVcolleagues
p1443
aVrecent
p1444
aVmurders
p1445
aVtell
p1446
ag12
(g16
S'\xc3;\xe2\xa5\x9bib@'
p1447
tp1448
Rp1449
VWed Sep 26 03:21:33 +0000 2012
p1450
VWed Sep 26 07:36:28 +0000 2012
p1451
tp1452
a((lp1453
Vpolice
p1454
aVplease
p1455
aVfollowing
p1456
aVofficers
p1457
aVfallen
p1458
aVcolleagues
p1459
aVrecent
p1460
aVmurders
p1461
aVaway
p1462
aVfollow
p1463
ag12
(g16
S'\xf4\xf6\x87\xe8^\xf4q@'
p1464
tp1465
Rp1466
VWed Sep 26 05:01:17 +0000 2012
p1467
VWed Sep 26 07:45:42 +0000 2012
p1468
tp1469
a((lp1470
Vpolice
p1471
aVplease
p1472
aVfollowing
p1473
aVrecent
p1474
aVofficers
p1475
aVfallen
p1476
aVcolleagues
p1477
aVmurders
p1478
aVfollow
p1479
aVaway
p1480
ag12
(g16
S'l\x15VqOtu@'
p1481
tp1482
Rp1483
VWed Sep 26 05:46:26 +0000 2012
p1484
VWed Sep 26 07:55:54 +0000 2012
p1485
tp1486
a((lp1487
Vpolice
p1488
aVplease
p1489
aVfollowing
p1490
aVrecent
p1491
aVofficers
p1492
aVfallen
p1493
aVcolleagues
p1494
aVmurders
p1495
aVfollow
p1496
aVaway
p1497
ag12
(g16
S'2\xbc\x00\xab4tu@'
p1498
tp1499
Rp1500
VWed Sep 26 06:11:42 +0000 2012
p1501
VWed Sep 26 08:06:04 +0000 2012
p1502
tp1503
a((lp1504
Vpolice
p1505
aVplease
p1506
aVfollowing
p1507
aVrecent
p1508
aVofficers
p1509
aVfallen
p1510
aVcolleagues
p1511
aVmurders
p1512
aVfollow
p1513
aVunfollow
p1514
ag12
(g16
S'2i\xb0\xaf5xu@'
p1515
tp1516
Rp1517
VWed Sep 26 06:27:43 +0000 2012
p1518
VWed Sep 26 08:15:23 +0000 2012
p1519
tp1520
a((lp1521
Vpolice
p1522
aVplease
p1523
aVfollowing
p1524
aVrecent
p1525
aVofficers
p1526
aVcolleagues
p1527
aVmurders
p1528
aVfallen
p1529
aVfollow
p1530
aVtell
p1531
ag12
(g16
S'\x82e\xc6\xe3?xu@'
p1532
tp1533
Rp1534
VWed Sep 26 06:42:59 +0000 2012
p1535
VWed Sep 26 08:26:33 +0000 2012
p1536
tp1537
a((lp1538
Vpolice
p1539
aVplease
p1540
aVfollowing
p1541
aVrecent
p1542
aVofficers
p1543
aVcolleagues
p1544
aVmurders
p1545
aVfallen
p1546
aVfollow
p1547
aVtell
p1548
ag12
(g16
S'*\t\xf9VPxu@'
p1549
tp1550
Rp1551
VWed Sep 26 06:55:57 +0000 2012
p1552
VWed Sep 26 08:36:07 +0000 2012
p1553
tp1554
a((lp1555
Vpolice
p1556
aVplease
p1557
aVfollow
p1558
aVfollowing
p1559
aVrecent
p1560
aVofficers
p1561
aVcolleagues
p1562
aVmurders
p1563
aVfallen
p1564
aVstop
p1565
ag12
(g16
S'\x0e\xdfbo2xu@'
p1566
tp1567
Rp1568
VWed Sep 26 07:07:50 +0000 2012
p1569
VWed Sep 26 08:45:00 +0000 2012
p1570
tp1571
a((lp1572
Vpolice
p1573
aVplease
p1574
aVfollow
p1575
aVfollowing
p1576
aVcolleagues
p1577
aVrecent
p1578
aVofficers
p1579
aVmurders
p1580
aVfallen
p1581
aVagain
p1582
ag12
(g16
S'\x9c-\x1eU?tu@'
p1583
tp1584
Rp1585
VWed Sep 26 07:18:20 +0000 2012
p1586
VWed Sep 26 08:54:49 +0000 2012
p1587
tp1588
a((lp1589
Vpolice
p1590
aVplease
p1591
aVfollow
p1592
aVfollowing
p1593
aVcolleagues
p1594
aVrecent
p1595
aVfallen
p1596
aVofficers
p1597
aVmurders
p1598
aVpatrol
p1599
ag12
(g16
S'U\x01\xd6\x1bS\x94t@'
p1600
tp1601
Rp1602
VWed Sep 26 07:27:39 +0000 2012
p1603
VWed Sep 26 09:04:42 +0000 2012
p1604
tp1605
a((lp1606
Vplease
p1607
aVpolice
p1608
aVfollow
p1609
aVfollowing
p1610
aVrecent
p1611
aVofficers
p1612
aVfallen
p1613
aVcolleagues
p1614
aVmurders
p1615
aVpcso
p1616
ag12
(g16
S'\xf4\xc1\x8d\xda\x19\x91h@'
p1617
tp1618
Rp1619
VWed Sep 26 07:36:31 +0000 2012
p1620
VWed Sep 26 09:17:00 +0000 2012
p1621
tp1622
a((lp1623
Vwork
p1624
aVyeah
p1625
aVgetting
p1626
aVnext
p1627
aVfirst
p1628
aVbeing
p1629
aVafter
p1630
aVstart
p1631
aVthan
p1632
aVbest
p1633
ag12
(g16
S'\x81\xf3\x9a\xc6\xbd{2@'
p1634
tp1635
Rp1636
VWed Sep 26 07:45:43 +0000 2012
p1637
VWed Sep 26 09:27:57 +0000 2012
p1638
tp1639
a((lp1640
Vwork
p1641
aVhaha
p1642
aVneed
p1643
aVwant
p1644
aVyeah
p1645
aVstill
p1646
aVgetting
p1647
aVnext
p1648
aVweek
p1649
aVstart
p1650
ag12
(g16
S'\x1e\xb9\xeeX\x8a"3@'
p1651
tp1652
Rp1653
VWed Sep 26 07:55:55 +0000 2012
p1654
VWed Sep 26 09:39:04 +0000 2012
p1655
tp1656
a((lp1657
Vwork
p1658
aVhaha
p1659
aVneed
p1660
aVstill
p1661
aVyeah
p1662
aVwant
p1663
aVgetting
p1664
aVthat's
p1665
aVweek
p1666
aVkeep
p1667
ag12
(g16
S'"X$G\xdd\xa52@'
p1668
tp1669
Rp1670
VWed Sep 26 08:06:05 +0000 2012
p1671
VWed Sep 26 09:48:47 +0000 2012
p1672
tp1673
a((lp1674
Vneed
p1675
aVhappy
p1676
aVgreat
p1677
aVhope
p1678
aVweek
p1679
aVphone
p1680
aVdays
p1681
aVlovely
p1682
aVsend
p1683
aVwishing
p1684
ag12
(g16
S'w`!\xc4\xb1J>@'
p1685
tp1686
Rp1687
VWed Sep 26 08:15:23 +0000 2012
p1688
VWed Sep 26 09:57:52 +0000 2012
p1689
tp1690
a((lp1691
Vwork
p1692
aVhaha
p1693
aVneed
p1694
aVyeah
p1695
aVthat's
p1696
aVnext
p1697
aVweek
p1698
aVdoing
p1699
aVkeep
p1700
aVyear
p1701
ag12
(g16
S'Rk\xfd\xa5C\x9b4@'
p1702
tp1703
Rp1704
VWed Sep 26 08:26:33 +0000 2012
p1705
VWed Sep 26 10:07:49 +0000 2012
p1706
tp1707
a((lp1708
Vhaha
p1709
aVneed
p1710
aVyeah
p1711
aVnext
p1712
aVthat's
p1713
aVweek
p1714
aVdoing
p1715
aVnever
p1716
aVthough
p1717
aVyear
p1718
ag12
(g16
S'h\xd0\x8c\x9f7\xac6@'
p1719
tp1720
Rp1721
VWed Sep 26 08:36:08 +0000 2012
p1722
VWed Sep 26 10:18:31 +0000 2012
p1723
tp1724
a((lp1725
Vhaha
p1726
aVneed
p1727
aVyeah
p1728
aVhere
p1729
aVthat's
p1730
aVnext
p1731
aVweek
p1732
aVdoing
p1733
aVthough
p1734
aVdidn't
p1735
ag12
(g16
S'\xe5M\x00\xf9\n"6@'
p1736
tp1737
Rp1738
VWed Sep 26 08:45:00 +0000 2012
p1739
VWed Sep 26 10:27:48 +0000 2012
p1740
tp1741
a((lp1742
Vhaha
p1743
aVneed
p1744
aVyeah
p1745
aVstill
p1746
aVnight
p1747
aVthat's
p1748
aVnext
p1749
aVweek
p1750
aVdoing
p1751
aVthough
p1752
ag12
(g16
S'\xb8e\x08\xe4)\xb48@'
p1753
tp1754
Rp1755
VWed Sep 26 08:54:50 +0000 2012
p1756
VWed Sep 26 10:37:10 +0000 2012
p1757
tp1758
a((lp1759
Vhaha
p1760
aVyeah
p1761
aVnight
p1762
aVstill
p1763
aVnext
p1764
aVthat's
p1765
aVweek
p1766
aVdoing
p1767
aVthough
p1768
aVyear
p1769
ag12
(g16
S'\rtn\xb2\xf3\xc47@'
p1770
tp1771
Rp1772
VWed Sep 26 09:04:43 +0000 2012
p1773
VWed Sep 26 10:46:13 +0000 2012
p1774
tp1775
a((lp1776
Vhaha
p1777
aVneed
p1778
aVyeah
p1779
aVnight
p1780
aVstill
p1781
aVhere
p1782
aVnext
p1783
aVweek
p1784
aVthough
p1785
aVyear
p1786
ag12
(g16
S'\xf4\xbf\xec\xbc\x9b\x0c6@'
p1787
tp1788
Rp1789
VWed Sep 26 09:17:00 +0000 2012
p1790
VWed Sep 26 10:55:27 +0000 2012
p1791
tp1792
a((lp1793
Vhaha
p1794
aVneed
p1795
aVnight
p1796
aVhere
p1797
aVstill
p1798
aVgreat
p1799
aVthat's
p1800
aVweek
p1801
aVnext
p1802
aVyou're
p1803
ag12
(g16
S'\x1aa\xc8\xe5[A4@'
p1804
tp1805
Rp1806
VWed Sep 26 09:27:58 +0000 2012
p1807
VWed Sep 26 11:05:12 +0000 2012
p1808
tp1809
a((lp1810
Vhaha
p1811
aVstill
p1812
aVhere
p1813
aVnight
p1814
aVweek
p1815
aVgreat
p1816
aVthough
p1817
aVnext
p1818
aVcould
p1819
aVfollow
p1820
ag12
(g16
S'\x94&\x04Y]>5@'
p1821
tp1822
Rp1823
VWed Sep 26 09:39:05 +0000 2012
p1824
VWed Sep 26 11:14:25 +0000 2012
p1825
tp1826
a((lp1827
Vhaha
p1828
aVneed
p1829
aVnight
p1830
aVstill
p1831
aVgreat
p1832
aVweek
p1833
aVnext
p1834
aVafter
p1835
aVhope
p1836
aVfollow
p1837
ag12
(g16
S'\x13\xcf\xfc\xc5\xf7\xb64@'
p1838
tp1839
Rp1840
VWed Sep 26 09:48:47 +0000 2012
p1841
VWed Sep 26 11:23:53 +0000 2012
p1842
tp1843
a((lp1844
Vhaha
p1845
aVnight
p1846
aVstill
p1847
aVthough
p1848
aVweek
p1849
aVafter
p1850
aVdoing
p1851
aVfollow
p1852
aVhope
p1853
aVyou're
p1854
ag12
(g16
S'\xbd\x1f\xb3\xb3Z\x983@'
p1855
tp1856
Rp1857
VWed Sep 26 09:57:53 +0000 2012
p1858
VWed Sep 26 11:33:55 +0000 2012
p1859
tp1860
a((lp1861
Vhaha
p1862
aVneed
p1863
aVnight
p1864
aVstill
p1865
aVafter
p1866
aVthough
p1867
aVweek
p1868
aVfollow
p1869
aVdoing
p1870
aVhope
p1871
ag12
(g16
S'\x05\xc1j\x99\xeb\x0b3@'
p1872
tp1873
Rp1874
VWed Sep 26 10:07:51 +0000 2012
p1875
VWed Sep 26 11:43:45 +0000 2012
p1876
tp1877
a((lp1878
Vhaha
p1879
aVwork
p1880
aVstill
p1881
aVi've
p1882
aVthem
p1883
aVthough
p1884
aVmate
p1885
aVactually
p1886
aVweek
p1887
aVtill
p1888
ag12
(g16
S'\xfe\xff\x8c\x80\xa7z1@'
p1889
tp1890
Rp1891
VWed Sep 26 10:18:33 +0000 2012
p1892
VWed Sep 26 11:52:58 +0000 2012
p1893
tp1894
a((lp1895
Vwork
p1896
aVthanks
p1897
aVyeah
p1898
aVplease
p1899
aVthem
p1900
aVthat's
p1901
aVthough
p1902
aVlife
p1903
aVweek
p1904
aVtill
p1905
ag12
(g16
S'\x8a\x7f\x0eI\x82\xa71@'
p1906
tp1907
Rp1908
VWed Sep 26 10:27:49 +0000 2012
p1909
VWed Sep 26 12:01:56 +0000 2012
p1910
tp1911
a((lp1912
Vhaha
p1913
aVwork
p1914
aVyeah
p1915
aVwant
p1916
aVstill
p1917
aVmate
p1918
aVweek
p1919
aVthem
p1920
aVlife
p1921
aVactually
p1922
ag12
(g16
S'\xc6\xffn\xc4a91@'
p1923
tp1924
Rp1925
VWed Sep 26 10:37:11 +0000 2012
p1926
VWed Sep 26 12:10:36 +0000 2012
p1927
tp1928
a((lp1929
Vhaha
p1930
aVwork
p1931
aVyeah
p1932
aVwant
p1933
aVi've
p1934
aVstill
p1935
aVweek
p1936
aVthough
p1937
aVlife
p1938
aVthem
p1939
ag12
(g16
S'\x9c\x15\xb5G\xb4]1@'
p1940
tp1941
Rp1942
VWed Sep 26 10:46:12 +0000 2012
p1943
VWed Sep 26 12:18:43 +0000 2012
p1944
tp1945
a((lp1946
Vhaha
p1947
aVwork
p1948
aVneed
p1949
aVyeah
p1950
aVstill
p1951
aVwant
p1952
aVnext
p1953
aVi've
p1954
aVthem
p1955
aVactually
p1956
ag12
(g16
S'X\xb9\xf8mE-2@'
p1957
tp1958
Rp1959
VWed Sep 26 10:55:27 +0000 2012
p1960
VWed Sep 26 12:28:18 +0000 2012
p1961
tp1962
a((lp1963
Vhaha
p1964
aVwork
p1965
aVneed
p1966
aVstill
p1967
aVwant
p1968
aVnext
p1969
aVi've
p1970
aVmake
p1971
aVdoing
p1972
aVdont
p1973
ag12
(g16
S'\x84\xe48\xe3C&1@'
p1974
tp1975
Rp1976
VWed Sep 26 11:05:14 +0000 2012
p1977
VWed Sep 26 12:36:33 +0000 2012
p1978
tp1979
a((lp1980
Vhaha
p1981
aVwork
p1982
aVwant
p1983
aVyeah
p1984
aVstill
p1985
aVi've
p1986
aVthem
p1987
aVsomething
p1988
aVweek
p1989
aVdont
p1990
ag12
(g16
S'\xea0\xcb\xffW\xcf0@'
p1991
tp1992
Rp1993
VWed Sep 26 11:14:29 +0000 2012
p1994
VWed Sep 26 12:45:38 +0000 2012
p1995
tp1996
a((lp1997
Vhaha
p1998
aVwork
p1999
aVneed
p2000
aVwant
p2001
aVyeah
p2002
aVnext
p2003
aVi've
p2004
aVthem
p2005
aVeven
p2006
aVweek
p2007
ag12
(g16
S'9\x9c\x8f\t;\x141@'
p2008
tp2009
Rp2010
VWed Sep 26 11:23:55 +0000 2012
p2011
VWed Sep 26 12:54:43 +0000 2012
p2012
tp2013
a((lp2014
Vneed
p2015
aVwant
p2016
aVstill
p2017
aVyeah
p2018
aVhere
p2019
aVi've
p2020
aVtheir
p2021
aVdone
p2022
aVsomeone
p2023
aVgonna
p2024
ag12
(g16
S'\x94Q\x02\x0e\xd8\xe5/@'
p2025
tp2026
Rp2027
VWed Sep 26 11:33:59 +0000 2012
p2028
VWed Sep 26 13:03:46 +0000 2012
p2029
tp2030
a((lp2031
Vhaha
p2032
aVwork
p2033
aVneed
p2034
aVgreat
p2035
aVnight
p2036
aVstill
p2037
aVhere
p2038
aVonly
p2039
aVnext
p2040
aVsomething
p2041
ag12
(g16
S'qI\x87\xec\x10K/@'
p2042
tp2043
Rp2044
VWed Sep 26 11:43:45 +0000 2012
p2045
VWed Sep 26 13:12:20 +0000 2012
p2046
tp2047
a((lp2048
Vhaha
p2049
aVneed
p2050
aVwork
p2051
aVnight
p2052
aVhere
p2053
aVthem
p2054
aVthanks
p2055
aVnext
p2056
aVlunch
p2057
aVdown
p2058
ag12
(g16
S'Qf|B\xd0\xb3.@'
p2059
tp2060
Rp2061
VWed Sep 26 11:53:01 +0000 2012
p2062
VWed Sep 26 13:21:10 +0000 2012
p2063
tp2064
a((lp2065
Vhaha
p2066
aVneed
p2067
aVnight
p2068
aVstill
p2069
aVgreat
p2070
aVyeah
p2071
aVgonna
p2072
aVyear
p2073
aVright
p2074
aVthough
p2075
ag12
(g16
S'\xaaf\xf3\xb9i\x141@'
p2076
tp2077
Rp2078
VWed Sep 26 12:01:56 +0000 2012
p2079
VWed Sep 26 13:30:30 +0000 2012
p2080
tp2081
a((lp2082
Vhaha
p2083
aVwork
p2084
aVneed
p2085
aVgreat
p2086
aVonly
p2087
aVthanks
p2088
aVmake
p2089
aVnext
p2090
aVright
p2091
aVbeing
p2092
ag12
(g16
S'@w\x11\xbc\x05\xbd.@'
p2093
tp2094
Rp2095
VWed Sep 26 12:10:37 +0000 2012
p2096
VWed Sep 26 13:38:26 +0000 2012
p2097
tp2098
a((lp2099
Vhaha
p2100
aVneed
p2101
aVwork
p2102
aVgreat
p2103
aVonly
p2104
aVthanks
p2105
aVnext
p2106
aVright
p2107
aVyear
p2108
aVlooks
p2109
ag12
(g16
S'\x8f\x90\xfeX\x8d\x83/@'
p2110
tp2111
Rp2112
VWed Sep 26 12:18:44 +0000 2012
p2113
VWed Sep 26 13:47:26 +0000 2012
p2114
tp2115
a((lp2116
Vwant
p2117
aVhaha
p2118
aVwork
p2119
aVonly
p2120
aVgreat
p2121
aVthanks
p2122
aVright
p2123
aVsure
p2124
aVafter
p2125
aVcould
p2126
ag12
(g16
S'\xc2F\xd2\xca\x0ct+@'
p2127
tp2128
Rp2129
VWed Sep 26 12:28:19 +0000 2012
p2130
VWed Sep 26 13:56:16 +0000 2012
p2131
tp2132
a((lp2133
Vwork
p2134
aVthanks
p2135
aVgreat
p2136
aVi've
p2137
aVhope
p2138
aVyeah
p2139
aVnext
p2140
aVlooking
p2141
aVweek
p2142
aVmonth
p2143
ag12
(g16
S'\x0b\x88\xb9\xbe\xf3\xd70@'
p2144
tp2145
Rp2146
VWed Sep 26 12:36:35 +0000 2012
p2147
VWed Sep 26 14:05:07 +0000 2012
p2148
tp2149
a((lp2150
Vthanks
p2151
aVgreat
p2152
aVgetting
p2153
aVbest
p2154
aVwait
p2155
aVnext
p2156
aVlooking
p2157
aVweek
p2158
aVforward
p2159
aVmeeting
p2160
ag12
(g16
S'\xf7y[Q\xa1D2@'
p2161
tp2162
Rp2163
VWed Sep 26 12:45:38 +0000 2012
p2164
VWed Sep 26 14:13:48 +0000 2012
p2165
tp2166
a((lp2167
Vhaha
p2168
aVthanks
p2169
aVwork
p2170
aVgreat
p2171
aVi've
p2172
aVnext
p2173
aVweek
p2174
aVforward
p2175
aVmeeting
p2176
aVmonth
p2177
ag12
(g16
S'E\xd4\x16\x1eN\xc82@'
p2178
tp2179
Rp2180
VWed Sep 26 12:54:44 +0000 2012
p2181
VWed Sep 26 14:22:21 +0000 2012
p2182
tp2183
a((lp2184
Vthanks
p2185
aVi've
p2186
aVgreat
p2187
aVyeah
p2188
aVnext
p2189
aVwait
p2190
aVlooking
p2191
aVfollow
p2192
aVweek
p2193
aVmonth
p2194
ag12
(g16
S'\xd0\xf6\xf1>\x89\x012@'
p2195
tp2196
Rp2197
VWed Sep 26 13:03:48 +0000 2012
p2198
VWed Sep 26 14:30:39 +0000 2012
p2199
tp2200
a((lp2201
Vthanks
p2202
aVwork
p2203
aVi've
p2204
aVyeah
p2205
aVnext
p2206
aVthem
p2207
aVbest
p2208
aVhope
p2209
aVthan
p2210
aVweek
p2211
ag12
(g16
S'\xd0\x12o\x93\xee\xf71@'
p2212
tp2213
Rp2214
VWed Sep 26 13:12:21 +0000 2012
p2215
VWed Sep 26 14:39:41 +0000 2012
p2216
tp2217
a((lp2218
Vthanks
p2219
aVi've
p2220
aVyeah
p2221
aVgetting
p2222
aVgreat
p2223
aVnext
p2224
aVlooking
p2225
aVweek
p2226
aVmeeting
p2227
aVforward
p2228
ag12
(g16
S'\x98^\xf4\x1c\x14-2@'
p2229
tp2230
Rp2231
VWed Sep 26 13:21:10 +0000 2012
p2232
VWed Sep 26 14:48:21 +0000 2012
p2233
tp2234
a((lp2235
Vyeah
p2236
aVi've
p2237
aVthem
p2238
aVnext
p2239
aVdone
p2240
aVthan
p2241
aVbetter
p2242
aVweek
p2243
aVever
p2244
aVnothing
p2245
ag12
(g16
S'\xf0\xec:\xd1f\xd13@'
p2246
tp2247
Rp2248
VWed Sep 26 13:30:31 +0000 2012
p2249
VWed Sep 26 14:55:40 +0000 2012
p2250
tp2251
a((lp2252
Vneed
p2253
aVhaha
p2254
aVonly
p2255
aVi've
p2256
aVyeah
p2257
aVmake
p2258
aVthem
p2259
aVthan
p2260
aValways
p2261
aVweek
p2262
ag12
(g16
S'\x01}\xdd\x88\xcd]1@'
p2263
tp2264
Rp2265
VWed Sep 26 13:38:28 +0000 2012
p2266
VWed Sep 26 15:03:17 +0000 2012
p2267
tp2268
a((lp2269
Vneed
p2270
aVwant
p2271
aVi've
p2272
aVyeah
p2273
aVthan
p2274
aVdone
p2275
aVbetter
p2276
aVsoon
p2277
aVnothing
p2278
aVworse
p2279
ag12
(g16
S'\x0c\xd6U\x05hl3@'
p2280
tp2281
Rp2282
VWed Sep 26 13:47:26 +0000 2012
p2283
VWed Sep 26 15:10:27 +0000 2012
p2284
tp2285
a((lp2286
Vthanks
p2287
aVneed
p2288
aVwant
p2289
aVmake
p2290
aVi've
p2291
aVyeah
p2292
aVhope
p2293
aVthan
p2294
aVbetter
p2295
aVweek
p2296
ag12
(g16
S'\xce\xb5\x84\x1e\xa2l3@'
p2297
tp2298
Rp2299
VWed Sep 26 13:56:17 +0000 2012
p2300
VWed Sep 26 15:17:38 +0000 2012
p2301
tp2302
a((lp2303
Vneed
p2304
aVthanks
p2305
aVwant
p2306
aVgetting
p2307
aVstill
p2308
aVhere
p2309
aVhope
p2310
aVthan
p2311
aVfeel
p2312
aVsomething
p2313
ag12
(g16
S'. \xf3\xafF\xbd1@'
p2314
tp2315
Rp2316
VWed Sep 26 14:05:08 +0000 2012
p2317
VWed Sep 26 15:24:54 +0000 2012
p2318
tp2319
a((lp2320
Vneed
p2321
aVyeah
p2322
aVmake
p2323
aVthough
p2324
aVthan
p2325
aVbetter
p2326
aVsure
p2327
aVweek
p2328
aVother
p2329
aVlong
p2330
ag12
(g16
S'g\x80`\x18\x01\xbd1@'
p2331
tp2332
Rp2333
VWed Sep 26 14:13:48 +0000 2012
p2334
VWed Sep 26 15:32:19 +0000 2012
p2335
tp2336
a((lp2337
Vneed
p2338
aVwork
p2339
aVwant
p2340
aVthem
p2341
aVstill
p2342
aVlook
p2343
aVmake
p2344
aVthan
p2345
aVsomething
p2346
aVsomeone
p2347
ag12
(g16
S'\x16\xfc\x9e2\x9c40@'
p2348
tp2349
Rp2350
VWed Sep 26 14:22:27 +0000 2012
p2351
VWed Sep 26 15:39:12 +0000 2012
p2352
tp2353
a((lp2354
Vfollow
p2355
aVplease
p2356
aVthanks
p2357
aVsaid
p2358
aVsomeone
p2359
aVtell
p2360
aVcheryl
p2361
aVoffer
p2362
aVlouis
p2363
aVpleasee
p2364
ag12
(g16
S'yx>Z>\x07G@'
p2365
tp2366
Rp2367
VWed Sep 26 14:30:44 +0000 2012
p2368
VWed Sep 26 15:45:57 +0000 2012
p2369
tp2370
a((lp2371
Vfollow
p2372
aVplease
p2373
aVthanks
p2374
aVsomeone
p2375
aVcheck
p2376
aVcheryl
p2377
aVchristmas
p2378
aVoffer
p2379
aVlouis
p2380
aVpleasee
p2381
ag12
(g16
S'h?1z\xf5 G@'
p2382
tp2383
Rp2384
VWed Sep 26 14:39:43 +0000 2012
p2385
VWed Sep 26 15:52:47 +0000 2012
p2386
tp2387
a((lp2388
Vfollow
p2389
aVplease
p2390
aVthanks
p2391
aVhwibbackstagebiz
p2392
aVsomeone
p2393
aVcheck
p2394
aVcheryl
p2395
aVchristmas
p2396
aVlouis
p2397
aVpleasee
p2398
ag12
(g16
S'\xdc\xeez\x1fi7G@'
p2399
tp2400
Rp2401
VWed Sep 26 14:48:22 +0000 2012
p2402
VWed Sep 26 16:00:07 +0000 2012
p2403
tp2404
a((lp2405
Vplease
p2406
aVfollow
p2407
aVthanks
p2408
aVyou're
p2409
aVhwibbackstagebiz
p2410
aVsomeone
p2411
aVcheck
p2412
aVcheryl
p2413
aVlouis
p2414
aVpleasee
p2415
ag12
(g16
S'\x94T\x16\xb4\xcd\x93G@'
p2416
tp2417
Rp2418
VWed Sep 26 14:55:41 +0000 2012
p2419
VWed Sep 26 16:07:40 +0000 2012
p2420
tp2421
a((lp2422
Vplease
p2423
aVfollow
p2424
aVthanks
p2425
aVyou're
p2426
aVhwibbackstagebiz
p2427
aVsomeone
p2428
aVcheryl
p2429
aVcheck
p2430
aVlouis
p2431
aVpleasee
p2432
ag12
(g16
S'e\xe9\xc5\x9cG\x89G@'
p2433
tp2434
Rp2435
VWed Sep 26 15:03:18 +0000 2012
p2436
VWed Sep 26 16:14:13 +0000 2012
p2437
tp2438
a((lp2439
Vplease
p2440
aVfollow
p2441
aVthanks
p2442
aVhwibbackstagebiz
p2443
aVsomeone
p2444
aVcheck
p2445
aVcheryl
p2446
aVchristmas
p2447
aVlouis
p2448
aVpleasee
p2449
ag12
(g16
S'U\xb60\xa7\x89,G@'
p2450
tp2451
Rp2452
VWed Sep 26 15:10:28 +0000 2012
p2453
VWed Sep 26 16:20:42 +0000 2012
p2454
tp2455
a((lp2456
Vplease
p2457
aVfollow
p2458
aVthanks
p2459
aVsomeone
p2460
aVtwitter
p2461
aVcheryl
p2462
aVmaybe
p2463
aVcrazy
p2464
aVrandom3eekintofollow
p2465
aVheres
p2466
ag12
(g16
S'P\xfa2\x08\xfb\x99F@'
p2467
tp2468
Rp2469
VWed Sep 26 15:17:38 +0000 2012
p2470
VWed Sep 26 16:26:58 +0000 2012
p2471
tp2472
a((lp2473
Vplease
p2474
aVfollow
p2475
aVthanks
p2476
aVsomeone
p2477
aVtwitter
p2478
aVcheryl
p2479
aVmaybe
p2480
aVcrazy
p2481
aVrandom3eekintofollow
p2482
aVheres
p2483
ag12
(g16
S':r\xa6\xd2P\xa6E@'
p2484
tp2485
Rp2486
VWed Sep 26 15:24:54 +0000 2012
p2487
VWed Sep 26 16:33:56 +0000 2012
p2488
tp2489
a((lp2490
Vplease
p2491
aVfollow
p2492
aVthanks
p2493
aVsomeone
p2494
aVtwitter
p2495
aVcheryl
p2496
aVmaybe
p2497
aVcrazy
p2498
aVrandom3eekintofollow
p2499
aVheres
p2500
ag12
(g16
S'\xb1\xf0\xf9J4\x9dE@'
p2501
tp2502
Rp2503
VWed Sep 26 15:32:21 +0000 2012
p2504
VWed Sep 26 16:40:52 +0000 2012
p2505
tp2506
a((lp2507
Vplease
p2508
aVfollow
p2509
aVthanks
p2510
aVsomeone
p2511
aVtwitter
p2512
aVcheryl
p2513
aVmaybe
p2514
aVcrazy
p2515
aVrandom3eekintofollow
p2516
aVheres
p2517
ag12
(g16
S'\xb1\xde\x855I\x84E@'
p2518
tp2519
Rp2520
VWed Sep 26 15:39:13 +0000 2012
p2521
VWed Sep 26 16:47:18 +0000 2012
p2522
tp2523
a((lp2524
Vhaha
p2525
aVneed
p2526
aVyeah
p2527
aVnext
p2528
aVthat's
p2529
aVmate
p2530
aVeven
p2531
aVweek
p2532
aVthough
p2533
aVsure
p2534
ag12
(g16
S'\xa6{\xfd\x85Z\xa85@'
p2535
tp2536
Rp2537
VWed Sep 26 15:45:58 +0000 2012
p2538
VWed Sep 26 16:54:10 +0000 2012
p2539
tp2540
a((lp2541
Vhaha
p2542
aVneed
p2543
aVwork
p2544
aVyeah
p2545
aVnext
p2546
aVthat's
p2547
aVthem
p2548
aVnice
p2549
aVmate
p2550
aVthough
p2551
ag12
(g16
S'+\x87\xb7q\x99\xa34@'
p2552
tp2553
Rp2554
VWed Sep 26 15:52:48 +0000 2012
p2555
VWed Sep 26 17:00:15 +0000 2012
p2556
tp2557
a((lp2558
Vhaha
p2559
aVneed
p2560
aVwork
p2561
aVwant
p2562
aVyeah
p2563
aVthat's
p2564
aVvery
p2565
aVweek
p2566
aVmate
p2567
aVeven
p2568
ag12
(g16
S'\x8af\x150P\x024@'
p2569
tp2570
Rp2571
VWed Sep 26 16:00:08 +0000 2012
p2572
VWed Sep 26 17:05:59 +0000 2012
p2573
tp2574
a((lp2575
Vhaha
p2576
aVneed
p2577
aVwork
p2578
aVnext
p2579
aVthat's
p2580
aVyeah
p2581
aVweek
p2582
aVnice
p2583
aVmate
p2584
aVcall
p2585
ag12
(g16
S'sq\xec\xafs\x824@'
p2586
tp2587
Rp2588
VWed Sep 26 16:07:41 +0000 2012
p2589
VWed Sep 26 17:12:31 +0000 2012
p2590
tp2591
a((lp2592
Vhaha
p2593
aVneed
p2594
aVwork
p2595
aVstill
p2596
aVthat's
p2597
aVnext
p2598
aVyeah
p2599
aVnice
p2600
aVmate
p2601
aVsomething
p2602
ag12
(g16
S'\x1f\x112\n?\x1d4@'
p2603
tp2604
Rp2605
VWed Sep 26 16:14:14 +0000 2012
p2606
VWed Sep 26 17:18:40 +0000 2012
p2607
tp2608
a((lp2609
Vhaha
p2610
aVwork
p2611
aVwant
p2612
aVstill
p2613
aVthem
p2614
aVthat's
p2615
aVonly
p2616
aVyeah
p2617
aVweek
p2618
aVcould
p2619
ag12
(g16
S'a\x7fUl\xfd\xd82@'
p2620
tp2621
Rp2622
VWed Sep 26 16:20:42 +0000 2012
p2623
VWed Sep 26 17:24:57 +0000 2012
p2624
tp2625
a((lp2626
Vhaha
p2627
aVwork
p2628
aVstill
p2629
aVwant
p2630
aVonly
p2631
aVi've
p2632
aVvery
p2633
aVnever
p2634
aVlong
p2635
aVever
p2636
ag12
(g16
S'\xc4\x93BF\xe4~2@'
p2637
tp2638
Rp2639
VWed Sep 26 16:26:58 +0000 2012
p2640
VWed Sep 26 17:30:53 +0000 2012
p2641
tp2642
a((lp2643
Vhaha
p2644
aVstill
p2645
aVwork
p2646
aVwant
p2647
aVneed
p2648
aVonly
p2649
aVthem
p2650
aVi've
p2651
aVweek
p2652
aVsoon
p2653
ag12
(g16
S'\xbe[\xb9\x82t\xe61@'
p2654
tp2655
Rp2656
VWed Sep 26 16:33:58 +0000 2012
p2657
VWed Sep 26 17:36:35 +0000 2012
p2658
tp2659
a((lp2660
Vhaha
p2661
aVwork
p2662
aVneed
p2663
aVstill
p2664
aVwant
p2665
aVthem
p2666
aVi've
p2667
aVyeah
p2668
aVweek
p2669
aVafter
p2670
ag12
(g16
S'4\xd2\xeb\xcf|Z1@'
p2671
tp2672
Rp2673
VWed Sep 26 16:40:53 +0000 2012
p2674
VWed Sep 26 17:42:23 +0000 2012
p2675
tp2676
a((lp2677
Vwork
p2678
aVstill
p2679
aVthanks
p2680
aValways
p2681
aVgreat
p2682
aVlook
p2683
aVlooking
p2684
aVweek
p2685
aVlovely
p2686
aVseeing
p2687
ag12
(g16
S"\xeaN\x93\x0e'\xf23@"
p2688
tp2689
Rp2690
VWed Sep 26 16:47:19 +0000 2012
p2691
VWed Sep 26 17:47:41 +0000 2012
p2692
tp2693
a((lp2694
Vhaha
p2695
aVneed
p2696
aVwork
p2697
aVwant
p2698
aVstill
p2699
aVonly
p2700
aVi've
p2701
aVshould
p2702
aVyeah
p2703
aVdone
p2704
ag12
(g16
S'4{\x8a\xd1\xd2\x9d0@'
p2705
tp2706
Rp2707
VWed Sep 26 16:54:11 +0000 2012
p2708
VWed Sep 26 17:53:01 +0000 2012
p2709
tp2710
a((lp2711
Vhaha
p2712
aVneed
p2713
aVwork
p2714
aVwant
p2715
aVstill
p2716
aVi've
p2717
aVshould
p2718
aVfirst
p2719
aVgreat
p2720
aVdone
p2721
ag12
(g16
S'Y\xaa\xb3\xd5\x847.@'
p2722
tp2723
Rp2724
VWed Sep 26 17:00:15 +0000 2012
p2725
VWed Sep 26 17:58:36 +0000 2012
p2726
tp2727
a((lp2728
Vneed
p2729
aVhaha
p2730
aVwork
p2731
aVthem
p2732
aVstill
p2733
aVi've
p2734
aVtomorrow
p2735
aVshould
p2736
aVgreat
p2737
aVlooking
p2738
ag12
(g16
S'U\xd6u\xef\xe8\xe7.@'
p2739
tp2740
Rp2741
VWed Sep 26 17:05:59 +0000 2012
p2742
VWed Sep 26 18:04:01 +0000 2012
p2743
tp2744
a((lp2745
Vneed
p2746
aVwant
p2747
aVthem
p2748
aVwork
p2749
aVstill
p2750
aVlooking
p2751
aVshould
p2752
aVbest
p2753
aVtake
p2754
aVcould
p2755
ag12
(g16
S'\xda\xc9\xce\xb3\xf5\xac0@'
p2756
tp2757
Rp2758
VWed Sep 26 17:12:32 +0000 2012
p2759
VWed Sep 26 18:09:03 +0000 2012
p2760
tp2761
a((lp2762
Vthem
p2763
aVhaha
p2764
aVwork
p2765
aVtomorrow
p2766
aVstill
p2767
aVshould
p2768
aVtake
p2769
aVgreat
p2770
aVforward
p2771
aVdefo
p2772
ag12
(g16
S'%}\xc9(e\xb40@'
p2773
tp2774
Rp2775
VWed Sep 26 17:18:40 +0000 2012
p2776
VWed Sep 26 18:14:01 +0000 2012
p2777
tp2778
a((lp2779
Vfollow
p2780
aVplease
p2781
aVfirst
p2782
aVsince
p2783
aVloved
p2784
aVvictorious
p2785
aVsprinkles
p2786
aVsang
p2787
aVariana
p2788
aVxoxox7
p2789
ag12
(g16
S')\x9a\xde\x16\xfc`T@'
p2790
tp2791
Rp2792
VWed Sep 26 17:24:57 +0000 2012
p2793
VWed Sep 26 18:19:13 +0000 2012
p2794
tp2795
a((lp2796
Vfollow
p2797
aVfirst
p2798
aVplease
p2799
aVsince
p2800
aVloved
p2801
aVariana
p2802
aVvictorious
p2803
aVsprinkles
p2804
aVsang
p2805
aVxoxox
p2806
ag12
(g16
S'\x82{\xa9\xcfZaX@'
p2807
tp2808
Rp2809
VWed Sep 26 17:30:53 +0000 2012
p2810
VWed Sep 26 18:24:31 +0000 2012
p2811
tp2812
a((lp2813
Vfollow
p2814
aVfirst
p2815
aVplease
p2816
aVsince
p2817
aVloved
p2818
aVsprinkles
p2819
aVariana
p2820
aVvictorious
p2821
aVsang
p2822
aVxoxox
p2823
ag12
(g16
S'^\xfezuY7X@'
p2824
tp2825
Rp2826
VWed Sep 26 17:36:37 +0000 2012
p2827
VWed Sep 26 18:29:49 +0000 2012
p2828
tp2829
a((lp2830
Vfollow
p2831
aVfirst
p2832
aVplease
p2833
aVsince
p2834
aVloved
p2835
aVsprinkles
p2836
aVariana
p2837
aVvictorious
p2838
aVsang
p2839
aVxoxox
p2840
ag12
(g16
S'\t\x12|uY7X@'
p2841
tp2842
Rp2843
VWed Sep 26 17:38:44 +0000 2012
p2844
VWed Sep 26 18:31:43 +0000 2012
p2845
tp2846
a.