(lp0
((lp1
Vthem
p2
aVthanks
p3
aVmake
p4
aVhappy
p5
aVfollow
p6
aVhope
p7
aVplease
p8
aVbirthday
p9
aVyou're
p10
aVeveryone
p11
acnumpy.core.multiarray
scalar
p12
(cnumpy
dtype
p13
(S'f8'
p14
I0
I1
tp15
Rp16
(I3
S'<'
p17
NNNI-1
I-1
I0
tp18
bS'\xa1\xe6\xa8\x87=iU@'
p19
tp20
Rp21
VTue Sep 25 15:49:40 +0000 2012
p22
VTue Sep 25 18:27:56 +0000 2012
p23
tp24
a((lp25
Vwant
p26
aVthem
p27
aVthanks
p28
aVmake
p29
aVhappy
p30
aVhope
p31
aVplease
p32
aVfollow
p33
aVbirthday
p34
aVeveryone
p35
ag12
(g16
S'\xfe\xd9\xca\xc5\n\xeaT@'
p36
tp37
Rp38
VTue Sep 25 16:07:06 +0000 2012
p39
VTue Sep 25 18:41:25 +0000 2012
p40
tp41
a((lp42
Vwant
p43
aVthanks
p44
aVthem
p45
aVmake
p46
aVhappy
p47
aVplease
p48
aVhope
p49
aVfollow
p50
aVbirthday
p51
aVyou're
p52
ag12
(g16
S'e\x8dp%\xc9\xf4R@'
p53
tp54
Rp55
VTue Sep 25 16:24:36 +0000 2012
p56
VTue Sep 25 18:55:42 +0000 2012
p57
tp58
a((lp59
Vwant
p60
aVwork
p61
aVthanks
p62
aVmake
p63
aVnice
p64
aVplease
p65
aVvery
p66
aVhappy
p67
aVfollow
p68
aVbirthday
p69
ag12
(g16
S'\x06)LZ{QK@'
p70
tp71
Rp72
VTue Sep 25 16:41:30 +0000 2012
p73
VTue Sep 25 19:09:08 +0000 2012
p74
tp75
a((lp76
Vwant
p77
aVwork
p78
aVstill
p79
aVyeah
p80
aVi've
p81
aVhere
p82
aVafter
p83
aVagain
p84
aVdays
p85
aVseen
p86
ag12
(g16
S'\xd3\xc1\x8d6\xbc\xef@@'
p87
tp88
Rp89
VTue Sep 25 16:56:47 +0000 2012
p90
VTue Sep 25 19:22:50 +0000 2012
p91
tp92
a((lp93
Vwork
p94
aVyeah
p95
aVstill
p96
aVthem
p97
aVhere
p98
aVnever
p99
aVi've
p100
aVafter
p101
aVdays
p102
aVseen
p103
ag12
(g16
S'\xc0\x7f\xa6\xaa\xec0B@'
p104
tp105
Rp106
VTue Sep 25 17:13:49 +0000 2012
p107
VTue Sep 25 19:36:08 +0000 2012
p108
tp109
a((lp110
Vwant
p111
aVthem
p112
aVstill
p113
aVwork
p114
aVi've
p115
aVhere
p116
aVnever
p117
aVafter
p118
aVever
p119
aVseen
p120
ag12
(g16
S'2\x92\x92\xc7\x07\x07B@'
p121
tp122
Rp123
VTue Sep 25 17:29:40 +0000 2012
p124
VTue Sep 25 19:49:25 +0000 2012
p125
tp126
a((lp127
Vhaha
p128
aVwant
p129
aVneed
p130
aVthem
p131
aVstill
p132
aVwork
p133
aVi've
p134
aVhere
p135
aVeven
p136
aVthough
p137
ag12
(g16
S'd\x9d#\xc3\xb0\x13A@'
p138
tp139
Rp140
VTue Sep 25 17:45:45 +0000 2012
p141
VTue Sep 25 20:02:11 +0000 2012
p142
tp143
a((lp144
Vhaha
p145
aVthem
p146
aVstill
p147
aVnever
p148
aVi've
p149
aVlife
p150
aVbest
p151
aVever
p152
aVthing
p153
aVseen
p154
ag12
(g16
S'\x12\x1f\xd0\x8c\xa2@D@'
p155
tp156
Rp157
VTue Sep 25 18:00:01 +0000 2012
p158
VTue Sep 25 20:15:18 +0000 2012
p159
tp160
a((lp161
Vhaha
p162
aVwant
p163
aVthem
p164
aVonly
p165
aVyeah
p166
aVwork
p167
aVstill
p168
aVi've
p169
aVafter
p170
aVthough
p171
ag12
(g16
S'\xce\xeb\x12lI\x87B@'
p172
tp173
Rp174
VTue Sep 25 18:14:36 +0000 2012
p175
VTue Sep 25 20:27:59 +0000 2012
p176
tp177
a((lp178
Vhaha
p179
aVwant
p180
aVthem
p181
aVyeah
p182
aVstill
p183
aVhere
p184
aVright
p185
aVi've
p186
aVthough
p187
aVafter
p188
ag12
(g16
S'\x1d\xf5\x8a\xb5\x17\xdfB@'
p189
tp190
Rp191
VTue Sep 25 18:27:56 +0000 2012
p192
VTue Sep 25 20:40:14 +0000 2012
p193
tp194
a((lp195
Vhaha
p196
aVwant
p197
aVthem
p198
aVneed
p199
aVonly
p200
aVyeah
p201
aVstill
p202
aVtomorrow
p203
aVi've
p204
aVthough
p205
ag12
(g16
S'?\x0fpc\xf6DC@'
p206
tp207
Rp208
VTue Sep 25 18:41:25 +0000 2012
p209
VTue Sep 25 20:52:26 +0000 2012
p210
tp211
a((lp212
Vhaha
p213
aVwant
p214
aVthem
p215
aVonly
p216
aVyeah
p217
aVstill
p218
aVright
p219
aVhere
p220
aVi've
p221
aVthough
p222
ag12
(g16
S'\xb2SO\xbb/\xc2C@'
p223
tp224
Rp225
VTue Sep 25 18:55:42 +0000 2012
p226
VTue Sep 25 21:04:26 +0000 2012
p227
tp228
a((lp229
Vhaha
p230
aVwant
p231
aVonly
p232
aVthem
p233
aVyeah
p234
aVstill
p235
aVeven
p236
aVthough
p237
aVi've
p238
aVsomeone
p239
ag12
(g16
S'c\x96b]()D@'
p240
tp241
Rp242
VTue Sep 25 19:09:08 +0000 2012
p243
VTue Sep 25 21:15:55 +0000 2012
p244
tp245
a((lp246
Vhaha
p247
aVwant
p248
aVthem
p249
aVonly
p250
aVyeah
p251
aVthough
p252
aVstill
p253
aVnever
p254
aVi've
p255
aVsomeone
p256
ag12
(g16
S'\xcf\xea_f\xd1yC@'
p257
tp258
Rp259
VTue Sep 25 19:22:50 +0000 2012
p260
VTue Sep 25 21:27:16 +0000 2012
p261
tp262
a((lp263
Vhaha
p264
aVneed
p265
aVwant
p266
aVonly
p267
aVthem
p268
aVyeah
p269
aVstill
p270
aVnever
p271
aVi've
p272
aVcould
p273
ag12
(g16
S'\x16}\x93\xd0\xe6EC@'
p274
tp275
Rp276
VTue Sep 25 19:36:08 +0000 2012
p277
VTue Sep 25 21:40:48 +0000 2012
p278
tp279
a((lp280
Vhaha
p281
aVonly
p282
aVyeah
p283
aVthem
p284
aVnever
p285
aVthough
p286
aVi've
p287
aVcould
p288
aVwere
p289
aVsomeone
p290
ag12
(g16
S'\x0f\xcc\\\xc5\xb5>D@'
p291
tp292
Rp293
VTue Sep 25 19:49:26 +0000 2012
p294
VTue Sep 25 21:53:59 +0000 2012
p295
tp296
a((lp297
Vhaha
p298
aVonly
p299
aVyeah
p300
aVthem
p301
aVnever
p302
aVthough
p303
aVstill
p304
aVi've
p305
aVwere
p306
aVsomeone
p307
ag12
(g16
S'\xe48#\xdbI\xafD@'
p308
tp309
Rp310
VTue Sep 25 20:02:12 +0000 2012
p311
VTue Sep 25 22:08:13 +0000 2012
p312
tp313
a((lp314
Vhaha
p315
aVneed
p316
aVwant
p317
aVonly
p318
aVyeah
p319
aVthem
p320
aVthough
p321
aVnever
p322
aVwere
p323
aVcould
p324
ag12
(g16
S'\xe2\x90\xefP\xe2\xbbB@'
p325
tp326
Rp327
VTue Sep 25 20:15:18 +0000 2012
p328
VTue Sep 25 22:23:57 +0000 2012
p329
tp330
a((lp331
Vhaha
p332
aVwant
p333
aVyeah
p334
aVthem
p335
aVthough
p336
aVstill
p337
aVi've
p338
aVmake
p339
aVcould
p340
aVwere
p341
ag12
(g16
S'v\x93h\xac`\x15C@'
p342
tp343
Rp344
VTue Sep 25 20:27:59 +0000 2012
p345
VTue Sep 25 22:42:55 +0000 2012
p346
tp347
a((lp348
Vhaha
p349
aVonly
p350
aVthem
p351
aVnever
p352
aVthough
p353
aVi've
p354
aVbest
p355
aVever
p356
aVthing
p357
aVseen
p358
ag12
(g16
S'\xdc\x88e\x1b\x8a\x1dG@'
p359
tp360
Rp361
VTue Sep 25 20:40:15 +0000 2012
p362
VTue Sep 25 23:06:32 +0000 2012
p363
tp364
a((lp365
Vhaha
p366
aVwant
p367
aVthem
p368
aVnever
p369
aVi've
p370
aVbest
p371
aVever
p372
aVthing
p373
aVbefore
p374
aVseen
p375
ag12
(g16
S'\x98\xd7\xcb\xff\x94\x1eG@'
p376
tp377
Rp378
VTue Sep 25 20:52:28 +0000 2012
p379
VTue Sep 25 23:40:20 +0000 2012
p380
tp381
a((lp382
Vhaha
p383
aVwant
p384
aVyeah
p385
aVthem
p386
aVnever
p387
aVbest
p388
aVi've
p389
aVever
p390
aVthing
p391
aVseen
p392
ag12
(g16
S'\x86m\x87]\xb9\xd1D@'
p393
tp394
Rp395
VTue Sep 25 21:04:26 +0000 2012
p396
VWed Sep 26 00:30:32 +0000 2012
p397
tp398
a((lp399
Vnever
p400
aVthem
p401
aVbest
p402
aVonly
p403
aVlife
p404
aVi've
p405
aVever
p406
aVthing
p407
aVbefore
p408
aVseen
p409
ag12
(g16
S')FuG\xb3\x9aF@'
p410
tp411
Rp412
VTue Sep 25 21:15:56 +0000 2012
p413
VWed Sep 26 01:42:34 +0000 2012
p414
tp415
a((lp416
Vwant
p417
aVnever
p418
aVonly
p419
aVbest
p420
aVlife
p421
aVi've
p422
aVever
p423
aVevery
p424
aVbefore
p425
aVseen
p426
ag12
(g16
S'\xb8\xa9G\xe3&\xacD@'
p427
tp428
Rp429
VTue Sep 25 21:27:16 +0000 2012
p430
VWed Sep 26 05:01:11 +0000 2012
p431
tp432
a((lp433
Vonly
p434
aVnever
p435
aVthem
p436
aVbest
p437
aVlife
p438
aVi've
p439
aVever
p440
aVthing
p441
aVbefore
p442
aVseen
p443
ag12
(g16
S'\xc4KZ\x89\x1a\x81D@'
p444
tp445
Rp446
VTue Sep 25 21:40:48 +0000 2012
p447
VWed Sep 26 06:20:13 +0000 2012
p448
tp449
a((lp450
Vhaha
p451
aVwant
p452
aVstill
p453
aVyeah
p454
aVtomorrow
p455
aVthem
p456
aVright
p457
aVeven
p458
aVthough
p459
aVbefore
p460
ag12
(g16
S'\xa6\x0c\x868\xd7nA@'
p461
tp462
Rp463
VTue Sep 25 21:54:00 +0000 2012
p464
VWed Sep 26 06:55:57 +0000 2012
p465
tp466
a((lp467
Vneed
p468
aVhaha
p469
aVstill
p470
aVonly
p471
aVthem
p472
aVlife
p473
aVmake
p474
aVi've
p475
aVnever
p476
aVever
p477
ag12
(g16
S'\xa3hH6\x000A@'
p478
tp479
Rp480
VTue Sep 25 22:08:14 +0000 2012
p481
VWed Sep 26 07:23:29 +0000 2012
p482
tp483
a((lp484
Vfollow
p485
aVplease
p486
aVpolice
p487
aVfollowing
p488
aVrecent
p489
aVfallen
p490
aVofficers
p491
aVmurders
p492
aVcolleagues
p493
aVtell
p494
ag12
(g16
S'\x12\xc3\xd0\xdb\x90\x00r@'
p495
tp496
Rp497
VTue Sep 25 22:23:59 +0000 2012
p498
VWed Sep 26 07:45:42 +0000 2012
p499
tp500
a((lp501
Vplease
p502
aVfollow
p503
aVpolice
p504
aVfollowing
p505
aVrecent
p506
aVofficers
p507
aVfallen
p508
aVcolleagues
p509
aVmurders
p510
aVtell
p511
ag12
(g16
S'\xf4\n*\x12|vu@'
p512
tp513
Rp514
VTue Sep 25 22:42:56 +0000 2012
p515
VWed Sep 26 08:10:53 +0000 2012
p516
tp517
a((lp518
Vplease
p519
aVthanks
p520
aVpolice
p521
aVfollow
p522
aVfollowing
p523
aVrecent
p524
aVofficers
p525
aVfallen
p526
aVcolleagues
p527
aVmurders
p528
ag12
(g16
S'\x82|%\xdaRzu@'
p529
tp530
Rp531
VTue Sep 25 23:06:32 +0000 2012
p532
VWed Sep 26 08:36:07 +0000 2012
p533
tp534
a((lp535
Vplease
p536
aVfollow
p537
aVpolice
p538
aVagain
p539
aVfollowing
p540
aVfallen
p541
aVcolleagues
p542
aVrecent
p543
aVofficers
p544
aVmurders
p545
ag12
(g16
S'\x84{\x93\xcb\xcczu@'
p546
tp547
Rp548
VTue Sep 25 23:40:27 +0000 2012
p549
VWed Sep 26 08:59:23 +0000 2012
p550
tp551
a((lp552
Vplease
p553
aVthanks
p554
aVpolice
p555
aVfollow
p556
aVfollowing
p557
aVofficers
p558
aVfallen
p559
aVcolleagues
p560
aVrecent
p561
aVmurders
p562
ag12
(g16
S'\x10\x9d\xa3\x021~u@'
p563
tp564
Rp565
VWed Sep 26 00:30:33 +0000 2012
p566
VWed Sep 26 09:27:57 +0000 2012
p567
tp568
a((lp569
Vthanks
p570
aVplease
p571
aVpolice
p572
aVfollow
p573
aVfollowing
p574
aVofficers
p575
aVfallen
p576
aVcolleagues
p577
aVrecent
p578
aVmurders
p579
ag12
(g16
S'\xeb\xc1\xee\xd7\x9d}u@'
p580
tp581
Rp582
VWed Sep 26 01:42:36 +0000 2012
p583
VWed Sep 26 09:52:54 +0000 2012
p584
tp585
a((lp586
Vthanks
p587
aVplease
p588
aVpolice
p589
aVfollow
p590
aVfollowing
p591
aVcolleagues
p592
aVofficers
p593
aVfallen
p594
aVrecent
p595
aVmurders
p596
ag12
(g16
S'd8\xe8\x9c\x8f}u@'
p597
tp598
Rp599
VWed Sep 26 05:01:17 +0000 2012
p600
VWed Sep 26 10:18:31 +0000 2012
p601
tp602
a((lp603
Vthanks
p604
aVplease
p605
aVpolice
p606
aVfollow
p607
aVfollowing
p608
aVfallen
p609
aVcolleagues
p610
aVofficers
p611
aVrecent
p612
aVmurders
p613
ag12
(g16
S'\xd8\x12\xb6\xfa\xde}u@'
p614
tp615
Rp616
VWed Sep 26 06:20:17 +0000 2012
p617
VWed Sep 26 10:42:02 +0000 2012
p618
tp619
a((lp620
Vthanks
p621
aVplease
p622
aVpolice
p623
aVfollow
p624
aVfollowing
p625
aVcolleagues
p626
aVofficers
p627
aVfallen
p628
aVrecent
p629
aVmurders
p630
ag12
(g16
S'z-\x8b\x04\xdf}u@'
p631
tp632
Rp633
VWed Sep 26 06:55:57 +0000 2012
p634
VWed Sep 26 11:05:12 +0000 2012
p635
tp636
a((lp637
Vthanks
p638
aVplease
p639
aVpolice
p640
aVfollow
p641
aVfollowing
p642
aVcolleagues
p643
aVfallen
p644
aVrecent
p645
aVofficers
p646
aVmurders
p647
ag12
(g16
S'\xc8\xd0\x8b\xdb\x03~u@'
p648
tp649
Rp650
VWed Sep 26 07:23:30 +0000 2012
p651
VWed Sep 26 11:28:38 +0000 2012
p652
tp653
a((lp654
Vhaha
p655
aVwork
p656
aVneed
p657
aVstill
p658
aVyeah
p659
aVwant
p660
aVthem
p661
aVafter
p662
aVweek
p663
aVthough
p664
ag12
(g16
S'\xd2\xcf\xf7c\x16\xd2C@'
p665
tp666
Rp667
VWed Sep 26 07:45:43 +0000 2012
p668
VWed Sep 26 11:52:58 +0000 2012
p669
tp670
a((lp671
Vhaha
p672
aVwork
p673
aVneed
p674
aVyeah
p675
aVstill
p676
aVwant
p677
aVi've
p678
aVnext
p679
aVthem
p680
aVthough
p681
ag12
(g16
S'\xa8\xac\xc6\x8e\xb3FD@'
p682
tp683
Rp684
VWed Sep 26 08:10:56 +0000 2012
p685
VWed Sep 26 12:14:41 +0000 2012
p686
tp687
a((lp688
Vhaha
p689
aVwork
p690
aVneed
p691
aVyeah
p692
aVstill
p693
aVnext
p694
aVthat's
p695
aVweek
p696
aVafter
p697
aVthough
p698
ag12
(g16
S'\xc9.\x98\xd3(\xc4E@'
p699
tp700
Rp701
VWed Sep 26 08:36:08 +0000 2012
p702
VWed Sep 26 12:36:33 +0000 2012
p703
tp704
a((lp705
Vhaha
p706
aVneed
p707
aVwork
p708
aVyeah
p709
aVnight
p710
aVnext
p711
aVthat's
p712
aVi've
p713
aVweek
p714
aVthough
p715
ag12
(g16
S'\xe2\xe4\xcagC\x9cE@'
p716
tp717
Rp718
VWed Sep 26 08:59:23 +0000 2012
p719
VWed Sep 26 12:58:52 +0000 2012
p720
tp721
a((lp722
Vhaha
p723
aVneed
p724
aVwork
p725
aVwant
p726
aVstill
p727
aVyeah
p728
aVweek
p729
aVeven
p730
aVthough
p731
aVgonna
p732
ag12
(g16
S',W\xe7?%\xdcB@'
p733
tp734
Rp735
VWed Sep 26 09:27:58 +0000 2012
p736
VWed Sep 26 13:21:10 +0000 2012
p737
tp738
a((lp739
Vhaha
p740
aVneed
p741
aVnight
p742
aVstill
p743
aVhere
p744
aVgreat
p745
aVthem
p746
aVnext
p747
aVright
p748
aVdidn't
p749
ag12
(g16
S'\xda\xb5\x98o\x96>B@'
p750
tp751
Rp752
VWed Sep 26 09:52:55 +0000 2012
p753
VWed Sep 26 13:42:52 +0000 2012
p754
tp755
a((lp756
Vhaha
p757
aVneed
p758
aVwork
p759
aVwant
p760
aVstill
p761
aVyeah
p762
aVthem
p763
aVi've
p764
aVweek
p765
aVthough
p766
ag12
(g16
S'Tp$\x98\xaa B@'
p767
tp768
Rp769
VWed Sep 26 10:18:33 +0000 2012
p770
VWed Sep 26 14:05:07 +0000 2012
p771
tp772
a((lp773
Vhaha
p774
aVneed
p775
aVwork
p776
aVthanks
p777
aVgreat
p778
aVyeah
p779
aVi've
p780
aVstill
p781
aVnext
p782
aVweek
p783
ag12
(g16
S'P\xb7\xbe\xeb;\x80B@'
p784
tp785
Rp786
VWed Sep 26 10:42:02 +0000 2012
p787
VWed Sep 26 14:26:27 +0000 2012
p788
tp789
a((lp790
Vhaha
p791
aVneed
p792
aVwork
p793
aVwant
p794
aVyeah
p795
aVstill
p796
aVgreat
p797
aVi've
p798
aVnext
p799
aVweek
p800
ag12
(g16
S'\xf6.7\xc9C>B@'
p801
tp802
Rp803
VWed Sep 26 11:05:14 +0000 2012
p804
VWed Sep 26 14:48:21 +0000 2012
p805
tp806
a((lp807
Vhaha
p808
aVneed
p809
aVwork
p810
aVgreat
p811
aVonly
p812
aVstill
p813
aVi've
p814
aVnext
p815
aVhope
p816
aVweek
p817
ag12
(g16
S'j\x84\xce*\x92\xa7A@'
p818
tp819
Rp820
VWed Sep 26 11:28:40 +0000 2012
p821
VWed Sep 26 15:07:12 +0000 2012
p822
tp823
a((lp824
Vwant
p825
aVwork
p826
aVthanks
p827
aVgreat
p828
aVyeah
p829
aVnext
p830
aVyou're
p831
aVwait
p832
aVweek
p833
aVyear
p834
ag12
(g16
S'\xac\xd4\x95\xdaZ\xe7@@'
p835
tp836
Rp837
VWed Sep 26 11:53:01 +0000 2012
p838
VWed Sep 26 15:24:54 +0000 2012
p839
tp840
a((lp841
Vneed
p842
aVhaha
p843
aVthanks
p844
aVwork
p845
aVyeah
p846
aVmake
p847
aVnext
p848
aVthough
p849
aVweek
p850
aVyear
p851
ag12
(g16
S' \xd2\x838_\xbc@@'
p852
tp853
Rp854
VWed Sep 26 12:14:43 +0000 2012
p855
VWed Sep 26 15:42:15 +0000 2012
p856
tp857
a((lp858
Vneed
p859
aVwant
p860
aVyeah
p861
aVstill
p862
aVonly
p863
aVnext
p864
aVeven
p865
aVbetter
p866
aVthough
p867
aVother
p868
ag12
(g16
S'\xd33\xfa\xcc\xf0\\B@'
p869
tp870
Rp871
VWed Sep 26 12:36:35 +0000 2012
p872
VWed Sep 26 16:00:07 +0000 2012
p873
tp874
a((lp875
Vneed
p876
aVhaha
p877
aVyeah
p878
aVmake
p879
aVthem
p880
aVstill
p881
aVthan
p882
aVthough
p883
aVfeel
p884
aVweek
p885
ag12
(g16
S'V\xb5\\\xe4\xc4SC@'
p886
tp887
Rp888
VWed Sep 26 12:58:54 +0000 2012
p889
VWed Sep 26 16:17:08 +0000 2012
p890
tp891
a((lp892
Vneed
p893
aVhaha
p894
aVyeah
p895
aVmake
p896
aVonly
p897
aVthem
p898
aVstill
p899
aVnext
p900
aVeven
p901
aVthough
p902
ag12
(g16
S'l\x05\xcf\xa2\x95\x8bB@'
p903
tp904
Rp905
VWed Sep 26 13:21:10 +0000 2012
p906
VWed Sep 26 16:33:56 +0000 2012
p907
tp908
a((lp909
Vhaha
p910
aVneed
p911
aVyeah
p912
aVonly
p913
aVthat's
p914
aVstill
p915
aVnext
p916
aVeven
p917
aVthough
p918
aVmate
p919
ag12
(g16
S'\xf7\xe2\x92\xce\xa1\nC@'
p920
tp921
Rp922
VWed Sep 26 13:42:53 +0000 2012
p923
VWed Sep 26 16:50:56 +0000 2012
p924
tp925
a((lp926
Vhaha
p927
aVneed
p928
aVyeah
p929
aVthem
p930
aVstill
p931
aVthat's
p932
aVthough
p933
aVweek
p934
aVmate
p935
aVweekend
p936
ag12
(g16
S'\x8e\xb5ZHD\xb4C@'
p937
tp938
Rp939
VWed Sep 26 14:05:08 +0000 2012
p940
VWed Sep 26 17:05:59 +0000 2012
p941
tp942
a((lp943
Vhaha
p944
aVneed
p945
aVwork
p946
aVstill
p947
aVyeah
p948
aVonly
p949
aVmake
p950
aVnext
p951
aVthough
p952
aVeven
p953
ag12
(g16
S'\xd8\x1a\x1b`}\x7fC@'
p954
tp955
Rp956
VWed Sep 26 14:26:29 +0000 2012
p957
VWed Sep 26 17:21:48 +0000 2012
p958
tp959
a((lp960
Vplease
p961
aVfollow
p962
aVthanks
p963
aVnice
p964
aVsomeone
p965
aVtwitter
p966
aVmaybe
p967
aVcheryl
p968
aVlouis
p969
aVpleasee
p970
ag12
(g16
S'\xafd\xd5I\x01bL@'
p971
tp972
Rp973
VWed Sep 26 14:48:22 +0000 2012
p974
VWed Sep 26 17:36:35 +0000 2012
p975
tp976
a((lp977
Vplease
p978
aVfollow
p979
aVthanks
p980
aVsomeone
p981
aVtwitter
p982
aVeveryone
p983
aVmaybe
p984
aVcheryl
p985
aVlouis
p986
aVpleasee
p987
ag12
(g16
S'\xa0\x84\x86FnjL@'
p988
tp989
Rp990
VWed Sep 26 15:07:12 +0000 2012
p991
VWed Sep 26 17:50:28 +0000 2012
p992
tp993
a((lp994
Vhaha
p995
aVneed
p996
aVwork
p997
aVwant
p998
aVthem
p999
aVstill
p1000
aVyeah
p1001
aVthat's
p1002
aVweek
p1003
aVeven
p1004
ag12
(g16
S'\x80\x98&\xf7[\xfdB@'
p1005
tp1006
Rp1007
VWed Sep 26 15:24:54 +0000 2012
p1008
VWed Sep 26 18:04:01 +0000 2012
p1009
tp1010
a((lp1011
Vhaha
p1012
aVneed
p1013
aVwant
p1014
aVwork
p1015
aVstill
p1016
aVthem
p1017
aVyeah
p1018
aVi've
p1019
aVnext
p1020
aVmate
p1021
ag12
(g16
S'a3\x9c\x0b2HB@'
p1022
tp1023
Rp1024
VWed Sep 26 15:42:16 +0000 2012
p1025
VWed Sep 26 18:16:57 +0000 2012
p1026
tp1027
a((lp1028
Vhaha
p1029
aVneed
p1030
aVwork
p1031
aVwant
p1032
aVthem
p1033
aVyeah
p1034
aVonly
p1035
aVstill
p1036
aVshould
p1037
aVafter
p1038
ag12
(g16
S'Z\x9b\xd8\xd1\xe0\xf4@@'
p1039
tp1040
Rp1041
VWed Sep 26 16:00:08 +0000 2012
p1042
VWed Sep 26 18:29:49 +0000 2012
p1043
tp1044
a((lp1045
Vhaha
p1046
aVneed
p1047
aVwant
p1048
aVwork
p1049
aVthem
p1050
aVstill
p1051
aVshould
p1052
aVnext
p1053
aVgreat
p1054
aVafter
p1055
ag12
(g16
S'\x9f \x87V\x9b+A@'
p1056
tp1057
Rp1058
VWed Sep 26 16:02:31 +0000 2012
p1059
VWed Sep 26 18:31:43 +0000 2012
p1060
tp1061
a.